S'Interation number :0Cost value :2.30428218842'
p0
.S'Interation number :1Cost value :2.30456495285'
p0
.S'Interation number :2Cost value :2.30466032028'
p0
.S'Interation number :3Cost value :2.30472278595'
p0
.S'Interation number :4Cost value :2.30474233627'
p0
.S'Interation number :5Cost value :2.30478048325'
p0
.S'Interation number :6Cost value :2.30480456352'
p0
.S'Interation number :7Cost value :2.3048145771'
p0
.S'Interation number :8Cost value :2.30483913422'
p0
.S'Interation number :9Cost value :2.30484199524'
p0
.S'Interation number :10Cost value :2.30484199524'
p0
.S'Interation number :11Cost value :2.3048825264'
p0
.S'Interation number :12Cost value :2.30486750603'
p0
.S'Interation number :13Cost value :2.30486965179'
p0
.S'Interation number :14Cost value :2.30487418175'
p0
.S'Interation number :15Cost value :2.30487942696'
p0
.S'Interation number :16Cost value :2.30488419533'
p0
.S'Interation number :17Cost value :2.30488872528'
p0
.S'Interation number :18Cost value :2.3048927784'
p0
.S'Interation number :19Cost value :2.30489635468'
p0
.S'Interation number :20Cost value :2.30489969254'
p0
.S'Interation number :21Cost value :2.30490279198'
p0
.S'Interation number :22Cost value :2.304905653'
p0
.S'Interation number :23Cost value :2.3049082756'
p0
.S'Interation number :24Cost value :2.30491113663'
p0
.S'Interation number :25Cost value :2.30491328239'
p0
.S'Interation number :26Cost value :2.30491542816'
p0
.S'Interation number :27Cost value :2.30491733551'
p0
.S'Interation number :28Cost value :2.3049197197'
p0
.S'Interation number :29Cost value :2.30492138863'
p0
.S'Interation number :30Cost value :2.30492353439'
p0
.S'Interation number :31Cost value :2.30492520332'
p0
.S'Interation number :32Cost value :2.30492687225'
p0
.S'Interation number :33Cost value :2.3049287796'
p0
.S'Interation number :34Cost value :2.30492997169'
p0
.S'Interation number :35Cost value :2.30493164062'
p0
.S'Interation number :36Cost value :2.30493307114'
p0
.S'Interation number :37Cost value :2.30493450165'
p0
.S'Interation number :38Cost value :2.30493593216'
p0
.S'Interation number :39Cost value :2.30493736267'
p0
.S'Interation number :40Cost value :2.30493879318'
p0
.S'Interation number :41Cost value :2.30493974686'
p0
.S'Interation number :42Cost value :2.30494070053'
p0
.S'Interation number :43Cost value :2.30494189262'
p0
.S'Interation number :44Cost value :2.30494308472'
p0
.S'Interation number :45Cost value :2.30494403839'
p0
.S'Interation number :46Cost value :2.30494523048'
p0
.S'Interation number :47Cost value :2.30494594574'
p0
.S'Interation number :48Cost value :2.30494689941'
p0
.S'Interation number :49Cost value :2.30494785309'
p0
.S'Interation number :50Cost value :2.30494880676'
p0
.S'Interation number :51Cost value :2.30494952202'
p0
.S'Interation number :52Cost value :2.30495023727'
p0
.S'Interation number :53Cost value :2.30495119095'
p0
.S'Interation number :54Cost value :2.30495166779'
p0
.S'Interation number :55Cost value :2.30495238304'
p0
.S'Interation number :56Cost value :2.3049530983'
p0
.S'Interation number :57Cost value :2.30495357513'
p0
.S'Interation number :58Cost value :2.30495452881'
p0
.S'Interation number :59Cost value :2.30495500565'
p0
.S'Interation number :60Cost value :2.3049557209'
p0
.S'Interation number :61Cost value :2.30495619774'
p0
.S'Interation number :62Cost value :2.30495667458'
p0
.S'Interation number :63Cost value :2.30495715141'
p0
.S'Interation number :64Cost value :2.30495762825'
p0
.S'Interation number :65Cost value :2.30495834351'
p0
.S'Interation number :66Cost value :2.30495882034'
p0
.S'Interation number :67Cost value :2.30495929718'
p0
.S'Interation number :68Cost value :2.30495977402'
p0
.S'Interation number :69Cost value :2.30496025085'
p0
.S'Interation number :70Cost value :2.30496072769'
p0
.S'Interation number :71Cost value :2.30496120453'
p0
.S'Interation number :72Cost value :2.30496168137'
p0
.S'Interation number :73Cost value :2.30496191978'
p0
.S'Interation number :74Cost value :2.3049621582'
p0
.S'Interation number :75Cost value :2.30496287346'
p0
.S'Interation number :76Cost value :2.30496311188'
p0
.S'Interation number :77Cost value :2.30496358871'
p0
.S'Interation number :78Cost value :2.30496406555'
p0
.S'Interation number :79Cost value :2.30496454239'
p0
.S'Interation number :80Cost value :2.30496501923'
p0
.S'Interation number :81Cost value :2.30496549606'
p0
.S'Interation number :82Cost value :2.30496573448'
p0
.S'Interation number :83Cost value :2.3049659729'
p0
.S'Interation number :84Cost value :2.30496644974'
p0
.S'Interation number :85Cost value :2.30496692657'
p0
.S'Interation number :86Cost value :2.30496740341'
p0
.S'Interation number :87Cost value :2.30496788025'
p0
.S'Interation number :88Cost value :2.30496835709'
p0
.S'Interation number :89Cost value :2.30496883392'
p0
.S'Interation number :90Cost value :2.30496573448'
p0
.S'Interation number :91Cost value :2.30497312546'
p0
.S'Interation number :92Cost value :2.30499124527'
p0
.S'Interation number :93Cost value :2.3049492836'
p0
.S'Interation number :94Cost value :2.30490684509'
p0
.S'Interation number :95Cost value :2.30491304398'
p0
.S'Interation number :96Cost value :2.30492830276'
p0
.S'Interation number :97Cost value :2.30493974686'
p0
.S'Interation number :98Cost value :2.30494785309'
p0
.S'Interation number :99Cost value :2.30495429039'
p0
.S'Interation number :100Cost value :2.30495929718'
p0
.S'Interation number :101Cost value :2.30496287346'
p0
.S'Interation number :102Cost value :2.3049659729'
p0
.S'Interation number :103Cost value :2.30496788025'
p0
.S'Interation number :104Cost value :2.3049697876'
p0
.S'Interation number :105Cost value :2.30497121811'
p0
.S'Interation number :106Cost value :2.30497217178'
p0
.S'Interation number :107Cost value :2.30500984192'
p0
.S'Interation number :108Cost value :2.30483388901'
p0
.S'Interation number :109Cost value :2.30486917496'
p0
.S'Interation number :110Cost value :2.304926157'
p0
.S'Interation number :111Cost value :2.30448007584'
p0
.S'Interation number :112Cost value :0.920458853245'
p0
.S'Interation number :113Cost value :0.193094462156'
p0
.S'Interation number :114Cost value :0.0633982717991'
p0
.S'Interation number :115Cost value :0.430710762739'
p0
.S'Interation number :116Cost value :0.0770131647587'
p0
.S'Interation number :117Cost value :0.00286467466503'
p0
.S'Interation number :118Cost value :0.00640328880399'
p0
.S'Interation number :119Cost value :0.00500382389873'
p0
.S'Interation number :120Cost value :0.0366422608495'
p0
.S'Interation number :121Cost value :0.0236130468547'
p0
.S'Interation number :122Cost value :0.139324814081'
p0
.S'Interation number :123Cost value :0.00198936532252'
p0
.S'Interation number :124Cost value :0.0126476334408'
p0
.S'Interation number :125Cost value :0.00983041524887'
p0
.S'Interation number :126Cost value :0.00165039882995'
p0
.S'Interation number :127Cost value :0.255394458771'
p0
.S'Interation number :128Cost value :0.012848704122'
p0
.S'Interation number :129Cost value :0.0062873037532'
p0
.S'Interation number :130Cost value :0.00138731079642'
p0
.S'Interation number :131Cost value :0.10446485132'
p0
.S'Interation number :132Cost value :0.00236851349473'
p0
.S'Interation number :133Cost value :0.000655737007037'
p0
.S'Interation number :134Cost value :0.420895218849'
p0
.S'Interation number :135Cost value :0.00169161148369'
p0
.S'Interation number :136Cost value :0.000380065001082'
p0
.S'Interation number :137Cost value :0.138771653175'
p0
.S'Interation number :138Cost value :0.000524719478562'
p0
.S'Interation number :139Cost value :0.00244724238291'
p0
.S'Interation number :140Cost value :0.000354846473783'
p0
.S'Interation number :141Cost value :0.00088741700165'
p0
.S'Interation number :142Cost value :0.000294069293886'
p0
.S'Interation number :143Cost value :0.000265137001406'
p0
.S'Interation number :144Cost value :0.00131002347916'
p0
.S'Interation number :145Cost value :0.00101712439209'
p0
.S'Interation number :146Cost value :0.000462857424282'
p0
.S'Interation number :147Cost value :0.00598739692941'
p0
.S'Interation number :148Cost value :0.000245270115556'
p0
.S'Interation number :149Cost value :0.0014067767188'
p0
.S'Interation number :150Cost value :0.000300816784147'
p0
.S'Interation number :151Cost value :0.000249407690717'
p0
.S'Interation number :152Cost value :0.00128847185988'
p0
.S'Interation number :153Cost value :0.000225405034143'
p0
.S'Interation number :154Cost value :0.000276617094642'
p0
.S'Interation number :155Cost value :0.000122075580293'
p0
.S'Interation number :156Cost value :0.000248593278229'
p0
.S'Interation number :157Cost value :0.000177859925316'
p0
.S'Interation number :158Cost value :0.000190500490135'
p0
.S'Interation number :159Cost value :0.000150121748447'
p0
.S'Interation number :160Cost value :0.000204780022614'
p0
.S'Interation number :161Cost value :0.000580343126785'
p0
.S'Interation number :162Cost value :0.000543504953384'
p0
.S'Interation number :163Cost value :8.67634371389e-05'
p0
.S'Interation number :164Cost value :0.000133196706884'
p0
.S'Interation number :165Cost value :7.99413246568e-05'
p0
.S'Interation number :166Cost value :0.00211460446008'
p0
.S'Interation number :167Cost value :0.000164712168043'
p0
.S'Interation number :168Cost value :0.000448822509497'
p0
.S'Interation number :169Cost value :0.0001235823147'
p0
.S'Interation number :170Cost value :8.09350676718e-05'
p0
.S'Interation number :171Cost value :0.000371481059119'
p0
.S'Interation number :172Cost value :0.000122669327538'
p0
.S'Interation number :173Cost value :0.000540006672964'
p0
.S'Interation number :174Cost value :0.000165078425198'
p0
.S'Interation number :175Cost value :0.000104940110759'
p0
.S'Interation number :176Cost value :5.46386254427e-05'
p0
.S'Interation number :177Cost value :8.96233541425e-05'
p0
.S'Interation number :178Cost value :0.000954093178734'
p0
.S'Interation number :179Cost value :9.27622022573e-05'
p0
.S'Interation number :180Cost value :0.000137195878779'
p0
.S'Interation number :181Cost value :6.76250056131e-05'
p0
.S'Interation number :182Cost value :0.000201098300749'
p0
.S'Interation number :183Cost value :0.00020346135716'
p0
.S'Interation number :184Cost value :0.00217347405851'
p0
.S'Interation number :185Cost value :0.00103708333336'
p0
.S'Interation number :186Cost value :0.112401276827'
p0
.S'Interation number :187Cost value :8.0502446508e-05'
p0
.S'Interation number :188Cost value :0.000128209125251'
p0
.