S'Epoch: 0  Error: 0.249373084425'
p0
.S'Epoch: 1  Error: 0.274728336584'
p0
.S'Epoch: 2  Error: 0.346614655893'
p0
.S'Epoch: 3  Error: 0.361382000557'
p0
.S'Epoch: 4  Error: 0.405405405405'
p0
.S'Epoch: 5  Error: 0.418500975202'
p0
.S'Epoch: 6  Error: 0.43048202842'
p0
.S'Epoch: 7  Error: 0.415714683756'
p0
.S'Epoch: 8  Error: 0.404848147116'
p0
.S'Epoch: 9  Error: 0.446642518807'
p0
.S'Epoch: 10  Error: 0.460573976038'
p0
.S'Epoch: 11  Error: 0.445806631374'
p0
.S'Epoch: 12  Error: 0.457787684592'
p0
.S'Epoch: 13  Error: 0.430760657565'
p0
.S'Epoch: 14  Error: 0.486486486486'
p0
.S'Epoch: 15  Error: 0.471161883533'
p0
.S'Epoch: 16  Error: 0.499024797994'
p0
.S'Epoch: 17  Error: 0.491780440234'
p0
.S'Epoch: 18  Error: 0.506547784898'
p0
.S'Epoch: 19  Error: 0.498746168849'
p0
.S'Epoch: 20  Error: 0.488158261354'
p0
.S'Epoch: 21  Error: 0.495681248259'
p0
.S'Epoch: 22  Error: 0.499024797994'
p0
.S'Epoch: 23  Error: 0.499303427138'
p0
.S'Epoch: 24  Error: 0.502089718585'
p0
.S'Epoch: 25  Error: 0.511841738646'
p0
.S'Epoch: 26  Error: 0.532181666202'
p0
.S'Epoch: 27  Error: 0.522708275286'
p0
.S'Epoch: 28  Error: 0.525494566732'
p0
.S'Epoch: 29  Error: 0.519086096406'
p0
.S'Epoch: 30  Error: 0.49818891056'
p0
.S'Epoch: 31  Error: 0.51574254667'
p0
.S'Epoch: 32  Error: 0.532181666202'
p0
.S'Epoch: 33  Error: 0.484536082474'
p0
.S'Epoch: 34  Error: 0.509612705489'
p0
.S'Epoch: 35  Error: 0.524380050153'
p0
.S'Epoch: 36  Error: 0.532460295347'
p0
.S'Epoch: 37  Error: 0.130119810532'
p0
.S'Epoch: 38  Error: 0.130119810532'
p0
.S'Epoch: 39  Error: 0.130119810532'
p0
.S'Epoch: 40  Error: 0.130119810532'
p0
.S'Epoch: 41  Error: 0.130119810532'
p0
.S'Epoch: 42  Error: 0.130119810532'
p0
.S'Epoch: 43  Error: 0.130119810532'
p0
.S'Epoch: 44  Error: 0.130119810532'
p0
.S'Epoch: 45  Error: 0.130119810532'
p0
.S'Epoch: 46  Error: 0.130119810532'
p0
.S'Epoch: 47  Error: 0.130119810532'
p0
.S'Epoch: 48  Error: 0.130119810532'
p0
.S'Epoch: 49  Error: 0.130119810532'
p0
.S'Epoch: 50  Error: 0.130119810532'
p0
.S'Epoch: 51  Error: 0.130119810532'
p0
.S'Epoch: 52  Error: 0.130119810532'
p0
.S'Epoch: 53  Error: 0.130119810532'
p0
.S'Epoch: 54  Error: 0.130119810532'
p0
.S'Epoch: 55  Error: 0.130119810532'
p0
.S'Epoch: 56  Error: 0.130119810532'
p0
.S'Epoch: 57  Error: 0.130119810532'
p0
.S'Epoch: 58  Error: 0.130119810532'
p0
.S'Epoch: 59  Error: 0.130119810532'
p0
.S'Epoch: 0  Error: 0.249373084425'
p0
.S'Epoch: 1  Error: 0.249373084425'
p0
.S'Epoch: 2  Error: 0.249373084425'
p0
.S'Epoch: 3  Error: 0.249373084425'
p0
.S'Epoch: 4  Error: 0.249373084425'
p0
.S'Epoch: 5  Error: 0.336026748398'
p0
.S'Epoch: 6  Error: 0.347729172471'
p0
.S'Epoch: 7  Error: 0.36639732516'
p0
.S'Epoch: 8  Error: 0.374756199498'
p0
.S'Epoch: 9  Error: 0.393981610476'
p0
.S'Epoch: 10  Error: 0.407913067707'
p0
.S'Epoch: 11  Error: 0.417943716913'
p0
.S'Epoch: 12  Error: 0.426023962106'
p0
.S'Epoch: 13  Error: 0.423516299805'
p0
.S'Epoch: 14  Error: 0.44134856506'
p0
.S'Epoch: 15  Error: 0.443020339928'
p0
.S'Epoch: 16  Error: 0.449986068543'
p0
.S'Epoch: 17  Error: 0.455558651435'
p0
.S'Epoch: 18  Error: 0.465589300641'
p0
.S'Epoch: 19  Error: 0.468932850376'
p0
.S'Epoch: 20  Error: 0.477570353859'
p0
.S'Epoch: 21  Error: 0.486486486486'
p0
.S'Epoch: 22  Error: 0.490665923656'
p0
.S'Epoch: 23  Error: 0.497910281415'
p0
.S'Epoch: 24  Error: 0.499024797994'
p0
.S'Epoch: 25  Error: 0.499582056283'
p0
.S'Epoch: 26  Error: 0.511284480357'
p0
.S'Epoch: 27  Error: 0.514349400947'
p0
.S'Epoch: 28  Error: 0.516578434104'
p0
.S'Epoch: 29  Error: 0.51629980496'
p0
.S'Epoch: 30  Error: 0.520757871273'
p0
.S'Epoch: 31  Error: 0.526051825021'
p0
.S'Epoch: 32  Error: 0.529674003901'
p0
.S'Epoch: 33  Error: 0.532460295347'
p0
.S'Epoch: 34  Error: 0.539147394817'
p0
.S'Epoch: 35  Error: 0.539704653107'
p0
.S'Epoch: 36  Error: 0.541655057119'
p0
.S'Epoch: 37  Error: 0.549456673168'
p0
.S'Epoch: 38  Error: 0.552521593759'
p0
.S'Epoch: 39  Error: 0.554750626916'
p0
.S'Epoch: 40  Error: 0.559208693229'
p0
.S'Epoch: 41  Error: 0.559208693229'
p0
.S'Epoch: 42  Error: 0.5658957927'
p0
.S'Epoch: 43  Error: 0.556979660072'
p0
.S'Epoch: 44  Error: 0.567846196712'
p0
.S'Epoch: 45  Error: 0.568682084146'
p0
.S'Epoch: 46  Error: 0.568960713291'
p0
.S'Epoch: 47  Error: 0.57620507105'
p0
.S'Epoch: 48  Error: 0.572582892171'
p0
.S'Epoch: 49  Error: 0.574254667038'
p0
.S'Epoch: 50  Error: 0.579548620786'
p0
.S'Epoch: 51  Error: 0.57982724993'
p0
.S'Epoch: 52  Error: 0.578991362497'
p0
.S'Epoch: 53  Error: 0.582892170521'
p0
.S'Epoch: 54  Error: 0.582334912232'
p0
.S'Epoch: 55  Error: 0.587350236835'
p0
.S'Epoch: 56  Error: 0.585957091112'
p0
.S'Epoch: 57  Error: 0.588186124269'
p0
.S'Epoch: 58  Error: 0.58707160769'
p0
.S'Epoch: 59  Error: 0.591251044859'
p0
.S'Epoch: 60  Error: 0.594037336305'
p0
.S'Epoch: 61  Error: 0.594594594595'
p0
.S'Epoch: 62  Error: 0.59069378657'
p0
.S'Epoch: 63  Error: 0.592644190582'
p0
.S'Epoch: 64  Error: 0.594037336305'
p0
.S'Epoch: 65  Error: 0.595430482028'
p0
.S'Epoch: 66  Error: 0.592365561438'
p0
.S'Epoch: 67  Error: 0.595430482028'
p0
.S'Epoch: 68  Error: 0.601003064921'
p0
.S'Epoch: 69  Error: 0.602674839788'
p0
.S'Epoch: 70  Error: 0.596823627751'
p0
.S'Epoch: 71  Error: 0.595430482028'
p0
.S'Epoch: 72  Error: 0.601281694065'
p0
.S'Epoch: 73  Error: 0.600724435776'
p0
.S'Epoch: 74  Error: 0.602396210644'
p0
.S'Epoch: 75  Error: 0.604067985511'
p0
.S'Epoch: 76  Error: 0.606297018668'
p0
.S'Epoch: 77  Error: 0.604903872945'
p0
.S'Epoch: 78  Error: 0.603789356367'
p0
.S'Epoch: 79  Error: 0.599609919198'
p0
.S'Epoch: 80  Error: 0.598495402619'
p0
.S'Epoch: 81  Error: 0.60880468097'
p0
.S'Epoch: 82  Error: 0.599052660908'
p0
.S'Epoch: 83  Error: 0.602396210644'
p0
.S'Epoch: 84  Error: 0.607411535247'
p0
.S'Epoch: 85  Error: 0.604625243801'
p0
.S'Epoch: 86  Error: 0.606018389524'
p0
.S'Epoch: 87  Error: 0.602953468933'
p0
.S'Epoch: 88  Error: 0.603789356367'
p0
.S'Epoch: 89  Error: 0.606018389524'
p0
.S'Epoch: 90  Error: 0.614377263862'
p0
.S'Epoch: 91  Error: 0.603510727222'
p0
.S'Epoch: 92  Error: 0.603232098077'
p0
.S'Epoch: 93  Error: 0.607411535247'
p0
.S'Epoch: 94  Error: 0.606018389524'
p0
.S'Epoch: 95  Error: 0.605461131234'
p0
.S'Epoch: 96  Error: 0.609919197548'
p0
.S'Epoch: 97  Error: 0.609640568403'
p0
.S'Epoch: 98  Error: 0.614934522151'
p0
.S'Epoch: 99  Error: 0.606575647813'
p0
.S'Epoch: 100  Error: 0.61911395932'
p0
.S'Epoch: 101  Error: 0.611590972416'
p0
.S'Epoch: 102  Error: 0.604625243801'
p0
.S'Epoch: 103  Error: 0.618835330176'
p0
.S'Epoch: 104  Error: 0.615213151296'
p0
.S'Epoch: 105  Error: 0.612984118139'
p0
.S'Epoch: 106  Error: 0.611312343271'
p0
.S'Epoch: 107  Error: 0.60824742268'
p0
.S'Epoch: 108  Error: 0.612705488994'
p0
.S'Epoch: 109  Error: 0.618835330176'
p0
.S'Epoch: 110  Error: 0.616606297019'
p0
.S'Epoch: 111  Error: 0.61186960156'
p0
.S'Epoch: 112  Error: 0.60824742268'
p0
.S'Epoch: 113  Error: 0.614098634717'
p0
.S'Epoch: 114  Error: 0.613820005573'
p0
.S'Epoch: 115  Error: 0.618556701031'
p0
.S'Epoch: 116  Error: 0.613541376428'
p0
.S'Epoch: 117  Error: 0.619392588465'
p0
.S'Epoch: 118  Error: 0.613820005573'
p0
.S'Epoch: 119  Error: 0.615213151296'
p0
.S'Epoch: 120  Error: 0.609361939259'
p0
.S'Epoch: 121  Error: 0.621342992477'
p0
.S'Epoch: 122  Error: 0.614098634717'
p0
.S'Epoch: 123  Error: 0.606854276957'
p0
.S'Epoch: 124  Error: 0.617999442742'
p0
.S'Epoch: 125  Error: 0.620785734188'
p0
.S'Epoch: 126  Error: 0.618556701031'
p0
.S'Epoch: 127  Error: 0.621342992477'
p0
.S'Epoch: 128  Error: 0.619949846754'
p0
.S'Epoch: 129  Error: 0.613820005573'
p0
.S'Epoch: 130  Error: 0.612984118139'
p0
.S'Epoch: 131  Error: 0.620785734188'
p0
.S'Epoch: 132  Error: 0.621342992477'
p0
.S'Epoch: 133  Error: 0.611312343271'
p0
.S'Epoch: 134  Error: 0.617999442742'
p0
.S'Epoch: 135  Error: 0.620507105043'
p0
.S'Epoch: 136  Error: 0.616049038729'
p0
.S'Epoch: 137  Error: 0.622178879911'
p0
.S'Epoch: 138  Error: 0.619392588465'
p0
.S'Epoch: 139  Error: 0.624407913068'
p0
.S'Epoch: 140  Error: 0.625801058791'
p0
.S'Epoch: 141  Error: 0.621342992477'
p0
.S'Epoch: 142  Error: 0.622457509055'
p0
.S'Epoch: 143  Error: 0.624129283923'
p0
.S'Epoch: 144  Error: 0.616884926163'
p0
.S'Epoch: 145  Error: 0.616884926163'
p0
.S'Epoch: 146  Error: 0.130119810532'
p0
.S'Epoch: 147  Error: 0.130119810532'
p0
.S'Epoch: 148  Error: 0.130119810532'
p0
.S'Epoch: 149  Error: 0.130119810532'
p0
.S'Epoch: 150  Error: 0.130119810532'
p0
.S'Epoch: 151  Error: 0.130119810532'
p0
.S'Epoch: 152  Error: 0.130119810532'
p0
.S'Epoch: 153  Error: 0.130119810532'
p0
.S'Epoch: 154  Error: 0.130119810532'
p0
.S'Epoch: 155  Error: 0.130119810532'
p0
.S'Epoch: 156  Error: 0.130119810532'
p0
.S'Epoch: 157  Error: 0.130119810532'
p0
.S'Epoch: 158  Error: 0.130119810532'
p0
.S'Epoch: 159  Error: 0.130119810532'
p0
.S'Epoch: 160  Error: 0.130119810532'
p0
.S'Epoch: 161  Error: 0.130119810532'
p0
.S'Epoch: 162  Error: 0.130119810532'
p0
.S'Epoch: 163  Error: 0.130119810532'
p0
.S'Epoch: 164  Error: 0.130119810532'
p0
.S'Epoch: 165  Error: 0.130119810532'
p0
.S'Epoch: 166  Error: 0.130119810532'
p0
.S'Epoch: 167  Error: 0.130119810532'
p0
.S'Epoch: 168  Error: 0.130119810532'
p0
.S'Epoch: 169  Error: 0.130119810532'
p0
.S'Epoch: 170  Error: 0.130119810532'
p0
.S'Epoch: 171  Error: 0.130119810532'
p0
.S'Epoch: 172  Error: 0.130119810532'
p0
.S'Epoch: 173  Error: 0.130119810532'
p0
.S'Epoch: 174  Error: 0.130119810532'
p0
.S'Epoch: 175  Error: 0.130119810532'
p0
.S'Epoch: 176  Error: 0.130119810532'
p0
.S'Epoch: 177  Error: 0.130119810532'
p0
.S'Epoch: 178  Error: 0.130119810532'
p0
.S'Epoch: 179  Error: 0.130119810532'
p0
.S'Epoch: 180  Error: 0.130119810532'
p0
.S'Epoch: 181  Error: 0.130119810532'
p0
.S'Epoch: 182  Error: 0.130119810532'
p0
.S'Epoch: 183  Error: 0.130119810532'
p0
.S'Epoch: 184  Error: 0.130119810532'
p0
.S'Epoch: 185  Error: 0.130119810532'
p0
.S'Epoch: 186  Error: 0.130119810532'
p0
.S'Epoch: 187  Error: 0.130119810532'
p0
.S'Epoch: 188  Error: 0.130119810532'
p0
.S'Epoch: 189  Error: 0.130119810532'
p0
.S'Epoch: 190  Error: 0.130119810532'
p0
.S'Epoch: 191  Error: 0.130119810532'
p0
.S'Epoch: 192  Error: 0.130119810532'
p0
.S'Epoch: 193  Error: 0.130119810532'
p0
.S'Epoch: 194  Error: 0.130119810532'
p0
.S'Epoch: 195  Error: 0.130119810532'
p0
.S'Epoch: 196  Error: 0.130119810532'
p0
.S'Epoch: 197  Error: 0.130119810532'
p0
.S'Epoch: 198  Error: 0.130119810532'
p0
.S'Epoch: 199  Error: 0.130119810532'
p0
.S'Epoch: 200  Error: 0.130119810532'
p0
.S'Epoch: 201  Error: 0.130119810532'
p0
.S'Epoch: 202  Error: 0.130119810532'
p0
.S'Epoch: 203  Error: 0.130119810532'
p0
.S'Epoch: 204  Error: 0.130119810532'
p0
.S'Epoch: 205  Error: 0.130119810532'
p0
.S'Epoch: 206  Error: 0.130119810532'
p0
.S'Epoch: 207  Error: 0.130119810532'
p0
.S'Epoch: 208  Error: 0.130119810532'
p0
.S'Epoch: 209  Error: 0.130119810532'
p0
.S'Epoch: 210  Error: 0.130119810532'
p0
.S'Epoch: 211  Error: 0.130119810532'
p0
.S'Epoch: 212  Error: 0.130119810532'
p0
.S'Epoch: 213  Error: 0.130119810532'
p0
.S'Epoch: 214  Error: 0.130119810532'
p0
.S'Epoch: 215  Error: 0.130119810532'
p0
.S'Epoch: 216  Error: 0.130119810532'
p0
.S'Epoch: 217  Error: 0.130119810532'
p0
.S'Epoch: 218  Error: 0.130119810532'
p0
.S'Epoch: 219  Error: 0.130119810532'
p0
.S'Epoch: 220  Error: 0.130119810532'
p0
.S'Epoch: 221  Error: 0.130119810532'
p0
.S'Epoch: 222  Error: 0.130119810532'
p0
.S'Epoch: 223  Error: 0.130119810532'
p0
.S'Epoch: 224  Error: 0.130119810532'
p0
.S'Epoch: 225  Error: 0.130119810532'
p0
.S'Epoch: 226  Error: 0.130119810532'
p0
.S'Epoch: 227  Error: 0.130119810532'
p0
.S'Epoch: 228  Error: 0.130119810532'
p0
.S'Epoch: 229  Error: 0.130119810532'
p0
.S'Epoch: 230  Error: 0.130119810532'
p0
.S'Epoch: 231  Error: 0.130119810532'
p0
.S'Epoch: 232  Error: 0.130119810532'
p0
.S'Epoch: 233  Error: 0.130119810532'
p0
.S'Epoch: 234  Error: 0.130119810532'
p0
.S'Epoch: 235  Error: 0.130119810532'
p0
.S'Epoch: 236  Error: 0.130119810532'
p0
.S'Epoch: 237  Error: 0.130119810532'
p0
.S'Epoch: 238  Error: 0.130119810532'
p0
.S'Epoch: 239  Error: 0.130119810532'
p0
.S'Epoch: 240  Error: 0.130119810532'
p0
.S'Epoch: 241  Error: 0.130119810532'
p0
.S'Epoch: 242  Error: 0.130119810532'
p0
.S'Epoch: 243  Error: 0.130119810532'
p0
.S'Epoch: 244  Error: 0.130119810532'
p0
.S'Epoch: 245  Error: 0.130119810532'
p0
.S'Epoch: 246  Error: 0.130119810532'
p0
.S'Epoch: 247  Error: 0.130119810532'
p0
.S'Epoch: 248  Error: 0.130119810532'
p0
.S'Epoch: 249  Error: 0.130119810532'
p0
.S'Epoch: 250  Error: 0.130119810532'
p0
.S'Epoch: 251  Error: 0.130119810532'
p0
.S'Epoch: 252  Error: 0.130119810532'
p0
.S'Epoch: 253  Error: 0.130119810532'
p0
.S'Epoch: 254  Error: 0.130119810532'
p0
.S'Epoch: 255  Error: 0.130119810532'
p0
.S'Epoch: 256  Error: 0.130119810532'
p0
.S'Epoch: 257  Error: 0.130119810532'
p0
.S'Epoch: 258  Error: 0.130119810532'
p0
.S'Epoch: 259  Error: 0.130119810532'
p0
.S'Epoch: 260  Error: 0.130119810532'
p0
.S'Epoch: 261  Error: 0.130119810532'
p0
.S'Epoch: 262  Error: 0.130119810532'
p0
.S'Epoch: 263  Error: 0.130119810532'
p0
.S'Epoch: 264  Error: 0.130119810532'
p0
.S'Epoch: 265  Error: 0.130119810532'
p0
.S'Epoch: 266  Error: 0.130119810532'
p0
.S'Epoch: 267  Error: 0.130119810532'
p0
.S'Epoch: 268  Error: 0.130119810532'
p0
.S'Epoch: 269  Error: 0.130119810532'
p0
.S'Epoch: 270  Error: 0.130119810532'
p0
.S'Epoch: 271  Error: 0.130119810532'
p0
.S'Epoch: 272  Error: 0.130119810532'
p0
.S'Epoch: 273  Error: 0.130119810532'
p0
.S'Epoch: 274  Error: 0.130119810532'
p0
.S'Epoch: 275  Error: 0.130119810532'
p0
.S'Epoch: 276  Error: 0.130119810532'
p0
.S'Epoch: 277  Error: 0.130119810532'
p0
.S'Epoch: 278  Error: 0.130119810532'
p0
.S'Epoch: 279  Error: 0.130119810532'
p0
.S'Epoch: 280  Error: 0.130119810532'
p0
.S'Epoch: 281  Error: 0.130119810532'
p0
.S'Epoch: 282  Error: 0.130119810532'
p0
.S'Epoch: 283  Error: 0.130119810532'
p0
.S'Epoch: 284  Error: 0.130119810532'
p0
.S'Epoch: 285  Error: 0.130119810532'
p0
.S'Epoch: 286  Error: 0.130119810532'
p0
.S'Epoch: 287  Error: 0.130119810532'
p0
.S'Epoch: 288  Error: 0.130119810532'
p0
.S'Epoch: 289  Error: 0.130119810532'
p0
.S'Epoch: 290  Error: 0.130119810532'
p0
.S'Epoch: 291  Error: 0.130119810532'
p0
.S'Epoch: 292  Error: 0.130119810532'
p0
.S'Epoch: 293  Error: 0.130119810532'
p0
.S'Epoch: 294  Error: 0.130119810532'
p0
.S'Epoch: 295  Error: 0.130119810532'
p0
.S'Epoch: 296  Error: 0.130119810532'
p0
.S'Epoch: 297  Error: 0.130119810532'
p0
.S'Epoch: 298  Error: 0.130119810532'
p0
.S'Epoch: 299  Error: 0.130119810532'
p0
.S'Epoch: 300  Error: 0.130119810532'
p0
.S'Epoch: 301  Error: 0.130119810532'
p0
.S'Epoch: 302  Error: 0.130119810532'
p0
.S'Epoch: 303  Error: 0.130119810532'
p0
.S'Epoch: 304  Error: 0.130119810532'
p0
.S'Epoch: 305  Error: 0.130119810532'
p0
.S'Epoch: 306  Error: 0.130119810532'
p0
.S'Epoch: 307  Error: 0.130119810532'
p0
.S'Epoch: 308  Error: 0.130119810532'
p0
.S'Epoch: 309  Error: 0.130119810532'
p0
.S'Epoch: 310  Error: 0.130119810532'
p0
.S'Epoch: 311  Error: 0.130119810532'
p0
.S'Epoch: 312  Error: 0.130119810532'
p0
.S'Epoch: 313  Error: 0.130119810532'
p0
.S'Epoch: 314  Error: 0.130119810532'
p0
.S'Epoch: 315  Error: 0.130119810532'
p0
.S'Epoch: 316  Error: 0.130119810532'
p0
.S'Epoch: 317  Error: 0.130119810532'
p0
.S'Epoch: 318  Error: 0.130119810532'
p0
.S'Epoch: 319  Error: 0.130119810532'
p0
.S'Epoch: 320  Error: 0.130119810532'
p0
.S'Epoch: 321  Error: 0.130119810532'
p0
.S'Epoch: 322  Error: 0.130119810532'
p0
.S'Epoch: 323  Error: 0.130119810532'
p0
.S'Epoch: 324  Error: 0.130119810532'
p0
.S'Epoch: 325  Error: 0.130119810532'
p0
.S'Epoch: 326  Error: 0.130119810532'
p0
.S'Epoch: 327  Error: 0.130119810532'
p0
.S'Epoch: 328  Error: 0.130119810532'
p0
.S'Epoch: 329  Error: 0.130119810532'
p0
.S'Epoch: 330  Error: 0.130119810532'
p0
.S'Epoch: 331  Error: 0.130119810532'
p0
.S'Epoch: 332  Error: 0.130119810532'
p0
.S'Epoch: 333  Error: 0.130119810532'
p0
.S'Epoch: 334  Error: 0.130119810532'
p0
.S'Epoch: 335  Error: 0.130119810532'
p0
.S'Epoch: 336  Error: 0.130119810532'
p0
.S'Epoch: 337  Error: 0.130119810532'
p0
.S'Epoch: 338  Error: 0.130119810532'
p0
.S'Epoch: 339  Error: 0.130119810532'
p0
.S'Epoch: 340  Error: 0.130119810532'
p0
.S'Epoch: 341  Error: 0.130119810532'
p0
.S'Epoch: 342  Error: 0.130119810532'
p0
.S'Epoch: 343  Error: 0.130119810532'
p0
.S'Epoch: 344  Error: 0.130119810532'
p0
.S'Epoch: 345  Error: 0.130119810532'
p0
.S'Epoch: 346  Error: 0.130119810532'
p0
.S'Epoch: 347  Error: 0.130119810532'
p0
.S'Epoch: 348  Error: 0.130119810532'
p0
.S'Epoch: 349  Error: 0.130119810532'
p0
.S'Epoch: 350  Error: 0.130119810532'
p0
.S'Epoch: 351  Error: 0.130119810532'
p0
.S'Epoch: 352  Error: 0.130119810532'
p0
.S'Epoch: 353  Error: 0.130119810532'
p0
.S'Epoch: 354  Error: 0.130119810532'
p0
.S'Epoch: 355  Error: 0.130119810532'
p0
.S'Epoch: 356  Error: 0.130119810532'
p0
.S'Epoch: 357  Error: 0.130119810532'
p0
.S'Epoch: 358  Error: 0.130119810532'
p0
.S'Epoch: 359  Error: 0.130119810532'
p0
.S'Epoch: 360  Error: 0.130119810532'
p0
.S'Epoch: 361  Error: 0.130119810532'
p0
.S'Epoch: 362  Error: 0.130119810532'
p0
.S'Epoch: 363  Error: 0.130119810532'
p0
.S'Epoch: 364  Error: 0.130119810532'
p0
.S'Epoch: 365  Error: 0.130119810532'
p0
.S'Epoch: 366  Error: 0.130119810532'
p0
.S'Epoch: 367  Error: 0.130119810532'
p0
.S'Epoch: 368  Error: 0.130119810532'
p0
.S'Epoch: 369  Error: 0.130119810532'
p0
.S'Epoch: 370  Error: 0.130119810532'
p0
.S'Epoch: 371  Error: 0.130119810532'
p0
.S'Epoch: 372  Error: 0.130119810532'
p0
.S'Epoch: 373  Error: 0.130119810532'
p0
.S'Epoch: 374  Error: 0.130119810532'
p0
.S'Epoch: 375  Error: 0.130119810532'
p0
.S'Epoch: 376  Error: 0.130119810532'
p0
.S'Epoch: 377  Error: 0.130119810532'
p0
.S'Epoch: 378  Error: 0.130119810532'
p0
.S'Epoch: 379  Error: 0.130119810532'
p0
.S'Epoch: 380  Error: 0.130119810532'
p0
.S'Epoch: 381  Error: 0.130119810532'
p0
.S'Epoch: 382  Error: 0.130119810532'
p0
.S'Epoch: 383  Error: 0.130119810532'
p0
.S'Epoch: 384  Error: 0.130119810532'
p0
.S'Epoch: 385  Error: 0.130119810532'
p0
.S'Epoch: 386  Error: 0.130119810532'
p0
.S'Epoch: 387  Error: 0.130119810532'
p0
.S'Epoch: 388  Error: 0.130119810532'
p0
.S'Epoch: 389  Error: 0.130119810532'
p0
.S'Epoch: 390  Error: 0.130119810532'
p0
.S'Epoch: 391  Error: 0.130119810532'
p0
.S'Epoch: 392  Error: 0.130119810532'
p0
.S'Epoch: 393  Error: 0.130119810532'
p0
.S'Epoch: 394  Error: 0.130119810532'
p0
.S'Epoch: 395  Error: 0.130119810532'
p0
.S'Epoch: 396  Error: 0.130119810532'
p0
.S'Epoch: 397  Error: 0.130119810532'
p0
.S'Epoch: 398  Error: 0.130119810532'
p0
.S'Epoch: 399  Error: 0.130119810532'
p0
.S'Epoch: 400  Error: 0.130119810532'
p0
.S'Epoch: 401  Error: 0.130119810532'
p0
.S'Epoch: 402  Error: 0.130119810532'
p0
.S'Epoch: 403  Error: 0.130119810532'
p0
.S'Epoch: 404  Error: 0.130119810532'
p0
.S'Epoch: 405  Error: 0.130119810532'
p0
.S'Epoch: 406  Error: 0.130119810532'
p0
.S'Epoch: 407  Error: 0.130119810532'
p0
.S'Epoch: 408  Error: 0.130119810532'
p0
.S'Epoch: 409  Error: 0.130119810532'
p0
.S'Epoch: 410  Error: 0.130119810532'
p0
.S'Epoch: 411  Error: 0.130119810532'
p0
.S'Epoch: 412  Error: 0.130119810532'
p0
.S'Epoch: 413  Error: 0.130119810532'
p0
.S'Epoch: 414  Error: 0.130119810532'
p0
.S'Epoch: 415  Error: 0.130119810532'
p0
.S'Epoch: 416  Error: 0.130119810532'
p0
.S'Epoch: 417  Error: 0.130119810532'
p0
.S'Epoch: 418  Error: 0.130119810532'
p0
.S'Epoch: 419  Error: 0.130119810532'
p0
.S'Epoch: 420  Error: 0.130119810532'
p0
.S'Epoch: 421  Error: 0.130119810532'
p0
.S'Epoch: 422  Error: 0.130119810532'
p0
.S'Epoch: 423  Error: 0.130119810532'
p0
.S'Epoch: 424  Error: 0.130119810532'
p0
.S'Epoch: 425  Error: 0.130119810532'
p0
.S'Epoch: 426  Error: 0.130119810532'
p0
.S'Epoch: 427  Error: 0.130119810532'
p0
.S'Epoch: 428  Error: 0.130119810532'
p0
.S'Epoch: 429  Error: 0.130119810532'
p0
.S'Epoch: 430  Error: 0.130119810532'
p0
.S'Epoch: 431  Error: 0.130119810532'
p0
.S'Epoch: 432  Error: 0.130119810532'
p0
.S'Epoch: 433  Error: 0.130119810532'
p0
.S'Epoch: 434  Error: 0.130119810532'
p0
.S'Epoch: 435  Error: 0.130119810532'
p0
.S'Epoch: 436  Error: 0.130119810532'
p0
.S'Epoch: 437  Error: 0.130119810532'
p0
.S'Epoch: 438  Error: 0.130119810532'
p0
.S'Epoch: 439  Error: 0.130119810532'
p0
.S'Epoch: 440  Error: 0.130119810532'
p0
.S'Epoch: 441  Error: 0.130119810532'
p0
.S'Epoch: 442  Error: 0.130119810532'
p0
.S'Epoch: 443  Error: 0.130119810532'
p0
.S'Epoch: 444  Error: 0.130119810532'
p0
.S'Epoch: 445  Error: 0.130119810532'
p0
.S'Epoch: 446  Error: 0.130119810532'
p0
.S'Epoch: 447  Error: 0.130119810532'
p0
.S'Epoch: 448  Error: 0.130119810532'
p0
.S'Epoch: 449  Error: 0.130119810532'
p0
.S'Epoch: 450  Error: 0.130119810532'
p0
.S'Epoch: 451  Error: 0.130119810532'
p0
.S'Epoch: 452  Error: 0.130119810532'
p0
.S'Epoch: 453  Error: 0.130119810532'
p0
.S'Epoch: 454  Error: 0.130119810532'
p0
.S'Epoch: 455  Error: 0.130119810532'
p0
.S'Epoch: 456  Error: 0.130119810532'
p0
.S'Epoch: 457  Error: 0.130119810532'
p0
.S'Epoch: 458  Error: 0.130119810532'
p0
.S'Epoch: 459  Error: 0.130119810532'
p0
.S'Epoch: 460  Error: 0.130119810532'
p0
.S'Epoch: 461  Error: 0.130119810532'
p0
.S'Epoch: 462  Error: 0.130119810532'
p0
.S'Epoch: 463  Error: 0.130119810532'
p0
.S'Epoch: 464  Error: 0.130119810532'
p0
.S'Epoch: 465  Error: 0.130119810532'
p0
.S'Epoch: 466  Error: 0.130119810532'
p0
.S'Epoch: 467  Error: 0.130119810532'
p0
.S'Epoch: 468  Error: 0.130119810532'
p0
.S'Epoch: 469  Error: 0.130119810532'
p0
.S'Epoch: 470  Error: 0.130119810532'
p0
.S'Epoch: 471  Error: 0.130119810532'
p0
.S'Epoch: 472  Error: 0.130119810532'
p0
.S'Epoch: 473  Error: 0.130119810532'
p0
.S'Epoch: 474  Error: 0.130119810532'
p0
.S'Epoch: 475  Error: 0.130119810532'
p0
.S'Epoch: 476  Error: 0.130119810532'
p0
.S'Epoch: 477  Error: 0.130119810532'
p0
.S'Epoch: 478  Error: 0.130119810532'
p0
.S'Epoch: 479  Error: 0.130119810532'
p0
.S'Epoch: 480  Error: 0.130119810532'
p0
.S'Epoch: 481  Error: 0.130119810532'
p0
.S'Epoch: 482  Error: 0.130119810532'
p0
.S'Epoch: 483  Error: 0.130119810532'
p0
.S'Epoch: 484  Error: 0.130119810532'
p0
.S'Epoch: 485  Error: 0.130119810532'
p0
.S'Epoch: 486  Error: 0.130119810532'
p0
.S'Epoch: 487  Error: 0.130119810532'
p0
.S'Epoch: 488  Error: 0.130119810532'
p0
.S'Epoch: 489  Error: 0.130119810532'
p0
.S'Epoch: 490  Error: 0.130119810532'
p0
.S'Epoch: 491  Error: 0.130119810532'
p0
.S'Epoch: 492  Error: 0.130119810532'
p0
.S'Epoch: 493  Error: 0.130119810532'
p0
.S'Epoch: 494  Error: 0.130119810532'
p0
.S'Epoch: 495  Error: 0.130119810532'
p0
.S'Epoch: 496  Error: 0.130119810532'
p0
.S'Epoch: 497  Error: 0.130119810532'
p0
.S'Epoch: 498  Error: 0.130119810532'
p0
.S'Epoch: 499  Error: 0.130119810532'
p0
.S'Epoch: 500  Error: 0.130119810532'
p0
.S'Epoch: 501  Error: 0.130119810532'
p0
.S'Epoch: 502  Error: 0.130119810532'
p0
.S'Epoch: 503  Error: 0.130119810532'
p0
.S'Epoch: 504  Error: 0.130119810532'
p0
.S'Epoch: 505  Error: 0.130119810532'
p0
.S'Epoch: 506  Error: 0.130119810532'
p0
.S'Epoch: 507  Error: 0.130119810532'
p0
.S'Epoch: 508  Error: 0.130119810532'
p0
.S'Epoch: 509  Error: 0.130119810532'
p0
.S'Epoch: 510  Error: 0.130119810532'
p0
.S'Epoch: 511  Error: 0.130119810532'
p0
.S'Epoch: 512  Error: 0.130119810532'
p0
.S'Epoch: 513  Error: 0.130119810532'
p0
.S'Epoch: 514  Error: 0.130119810532'
p0
.S'Epoch: 515  Error: 0.130119810532'
p0
.S'Epoch: 516  Error: 0.130119810532'
p0
.S'Epoch: 517  Error: 0.130119810532'
p0
.S'Epoch: 518  Error: 0.130119810532'
p0
.S'Epoch: 519  Error: 0.130119810532'
p0
.S'Epoch: 520  Error: 0.130119810532'
p0
.S'Epoch: 521  Error: 0.130119810532'
p0
.S'Epoch: 522  Error: 0.130119810532'
p0
.S'Epoch: 523  Error: 0.130119810532'
p0
.S'Epoch: 524  Error: 0.130119810532'
p0
.S'Epoch: 525  Error: 0.130119810532'
p0
.S'Epoch: 526  Error: 0.130119810532'
p0
.S'Epoch: 527  Error: 0.130119810532'
p0
.S'Epoch: 528  Error: 0.130119810532'
p0
.S'Epoch: 529  Error: 0.130119810532'
p0
.S'Epoch: 530  Error: 0.130119810532'
p0
.S'Epoch: 531  Error: 0.130119810532'
p0
.S'Epoch: 532  Error: 0.130119810532'
p0
.S'Epoch: 533  Error: 0.130119810532'
p0
.S'Epoch: 534  Error: 0.130119810532'
p0
.S'Epoch: 535  Error: 0.130119810532'
p0
.S'Epoch: 536  Error: 0.130119810532'
p0
.S'Epoch: 537  Error: 0.130119810532'
p0
.S'Epoch: 538  Error: 0.130119810532'
p0
.S'Epoch: 539  Error: 0.130119810532'
p0
.S'Epoch: 540  Error: 0.130119810532'
p0
.S'Epoch: 541  Error: 0.130119810532'
p0
.S'Epoch: 542  Error: 0.130119810532'
p0
.S'Epoch: 543  Error: 0.130119810532'
p0
.S'Epoch: 544  Error: 0.130119810532'
p0
.S'Epoch: 545  Error: 0.130119810532'
p0
.S'Epoch: 546  Error: 0.130119810532'
p0
.S'Epoch: 547  Error: 0.130119810532'
p0
.S'Epoch: 548  Error: 0.130119810532'
p0
.S'Epoch: 549  Error: 0.130119810532'
p0
.S'Epoch: 550  Error: 0.130119810532'
p0
.S'Epoch: 551  Error: 0.130119810532'
p0
.S'Epoch: 552  Error: 0.130119810532'
p0
.S'Epoch: 553  Error: 0.130119810532'
p0
.S'Epoch: 554  Error: 0.130119810532'
p0
.S'Epoch: 555  Error: 0.130119810532'
p0
.S'Epoch: 556  Error: 0.130119810532'
p0
.S'Epoch: 557  Error: 0.130119810532'
p0
.S'Epoch: 558  Error: 0.130119810532'
p0
.S'Epoch: 559  Error: 0.130119810532'
p0
.S'Epoch: 560  Error: 0.130119810532'
p0
.S'Epoch: 561  Error: 0.130119810532'
p0
.S'Epoch: 562  Error: 0.130119810532'
p0
.S'Epoch: 563  Error: 0.130119810532'
p0
.S'Epoch: 564  Error: 0.130119810532'
p0
.S'Epoch: 565  Error: 0.130119810532'
p0
.S'Epoch: 566  Error: 0.130119810532'
p0
.S'Epoch: 567  Error: 0.130119810532'
p0
.S'Epoch: 568  Error: 0.130119810532'
p0
.S'Epoch: 569  Error: 0.130119810532'
p0
.S'Epoch: 570  Error: 0.130119810532'
p0
.S'Epoch: 571  Error: 0.130119810532'
p0
.S'Epoch: 572  Error: 0.130119810532'
p0
.S'Epoch: 573  Error: 0.130119810532'
p0
.S'Epoch: 574  Error: 0.130119810532'
p0
.S'Epoch: 575  Error: 0.130119810532'
p0
.S'Epoch: 576  Error: 0.130119810532'
p0
.S'Epoch: 577  Error: 0.130119810532'
p0
.S'Epoch: 578  Error: 0.130119810532'
p0
.S'Epoch: 579  Error: 0.130119810532'
p0
.S'Epoch: 580  Error: 0.130119810532'
p0
.S'Epoch: 581  Error: 0.130119810532'
p0
.S'Epoch: 582  Error: 0.130119810532'
p0
.S'Epoch: 583  Error: 0.130119810532'
p0
.S'Epoch: 584  Error: 0.130119810532'
p0
.S'Epoch: 585  Error: 0.130119810532'
p0
.S'Epoch: 586  Error: 0.130119810532'
p0
.S'Epoch: 587  Error: 0.130119810532'
p0
.S'Epoch: 588  Error: 0.130119810532'
p0
.S'Epoch: 589  Error: 0.130119810532'
p0
.S'Epoch: 590  Error: 0.130119810532'
p0
.S'Epoch: 591  Error: 0.130119810532'
p0
.S'Epoch: 592  Error: 0.130119810532'
p0
.S'Epoch: 593  Error: 0.130119810532'
p0
.S'Epoch: 594  Error: 0.130119810532'
p0
.S'Epoch: 595  Error: 0.130119810532'
p0
.S'Epoch: 596  Error: 0.130119810532'
p0
.S'Epoch: 597  Error: 0.130119810532'
p0
.S'Epoch: 598  Error: 0.130119810532'
p0
.S'Epoch: 599  Error: 0.130119810532'
p0
.S'Epoch: 600  Error: 0.130119810532'
p0
.S'Epoch: 601  Error: 0.130119810532'
p0
.S'Epoch: 602  Error: 0.130119810532'
p0
.S'Epoch: 603  Error: 0.130119810532'
p0
.S'Epoch: 604  Error: 0.130119810532'
p0
.S'Epoch: 605  Error: 0.130119810532'
p0
.S'Epoch: 606  Error: 0.130119810532'
p0
.S'Epoch: 607  Error: 0.130119810532'
p0
.S'Epoch: 608  Error: 0.130119810532'
p0
.S'Epoch: 609  Error: 0.130119810532'
p0
.S'Epoch: 610  Error: 0.130119810532'
p0
.S'Epoch: 611  Error: 0.130119810532'
p0
.S'Epoch: 612  Error: 0.130119810532'
p0
.S'Epoch: 613  Error: 0.130119810532'
p0
.S'Epoch: 614  Error: 0.130119810532'
p0
.S'Epoch: 615  Error: 0.130119810532'
p0
.S'Epoch: 616  Error: 0.130119810532'
p0
.S'Epoch: 617  Error: 0.130119810532'
p0
.S'Epoch: 618  Error: 0.130119810532'
p0
.S'Epoch: 619  Error: 0.130119810532'
p0
.S'Epoch: 620  Error: 0.130119810532'
p0
.S'Epoch: 621  Error: 0.130119810532'
p0
.S'Epoch: 622  Error: 0.130119810532'
p0
.S'Epoch: 623  Error: 0.130119810532'
p0
.S'Epoch: 624  Error: 0.130119810532'
p0
.S'Epoch: 625  Error: 0.130119810532'
p0
.S'Epoch: 626  Error: 0.130119810532'
p0
.S'Epoch: 627  Error: 0.130119810532'
p0
.S'Epoch: 628  Error: 0.130119810532'
p0
.S'Epoch: 629  Error: 0.130119810532'
p0
.S'Epoch: 630  Error: 0.130119810532'
p0
.S'Epoch: 631  Error: 0.130119810532'
p0
.S'Epoch: 632  Error: 0.130119810532'
p0
.S'Epoch: 633  Error: 0.130119810532'
p0
.S'Epoch: 634  Error: 0.130119810532'
p0
.S'Epoch: 635  Error: 0.130119810532'
p0
.S'Epoch: 636  Error: 0.130119810532'
p0
.S'Epoch: 637  Error: 0.130119810532'
p0
.S'Epoch: 638  Error: 0.130119810532'
p0
.S'Epoch: 639  Error: 0.130119810532'
p0
.S'Epoch: 640  Error: 0.130119810532'
p0
.S'Epoch: 641  Error: 0.130119810532'
p0
.S'Epoch: 642  Error: 0.130119810532'
p0
.S'Epoch: 643  Error: 0.130119810532'
p0
.S'Epoch: 644  Error: 0.130119810532'
p0
.S'Epoch: 645  Error: 0.130119810532'
p0
.S'Epoch: 646  Error: 0.130119810532'
p0
.S'Epoch: 647  Error: 0.130119810532'
p0
.S'Epoch: 648  Error: 0.130119810532'
p0
.S'Epoch: 649  Error: 0.130119810532'
p0
.S'Epoch: 650  Error: 0.130119810532'
p0
.S'Epoch: 651  Error: 0.130119810532'
p0
.S'Epoch: 652  Error: 0.130119810532'
p0
.S'Epoch: 653  Error: 0.130119810532'
p0
.S'Epoch: 654  Error: 0.130119810532'
p0
.S'Epoch: 655  Error: 0.130119810532'
p0
.S'Epoch: 656  Error: 0.130119810532'
p0
.S'Epoch: 657  Error: 0.130119810532'
p0
.S'Epoch: 658  Error: 0.130119810532'
p0
.S'Epoch: 659  Error: 0.130119810532'
p0
.S'Epoch: 660  Error: 0.130119810532'
p0
.S'Epoch: 661  Error: 0.130119810532'
p0
.S'Epoch: 662  Error: 0.130119810532'
p0
.S'Epoch: 663  Error: 0.130119810532'
p0
.S'Epoch: 664  Error: 0.130119810532'
p0
.S'Epoch: 665  Error: 0.130119810532'
p0
.S'Epoch: 666  Error: 0.130119810532'
p0
.S'Epoch: 667  Error: 0.130119810532'
p0
.S'Epoch: 668  Error: 0.130119810532'
p0
.S'Epoch: 669  Error: 0.130119810532'
p0
.S'Epoch: 670  Error: 0.130119810532'
p0
.S'Epoch: 671  Error: 0.130119810532'
p0
.S'Epoch: 672  Error: 0.130119810532'
p0
.S'Epoch: 673  Error: 0.130119810532'
p0
.S'Epoch: 674  Error: 0.130119810532'
p0
.S'Epoch: 675  Error: 0.130119810532'
p0
.S'Epoch: 676  Error: 0.130119810532'
p0
.S'Epoch: 677  Error: 0.130119810532'
p0
.S'Epoch: 678  Error: 0.130119810532'
p0
.S'Epoch: 679  Error: 0.130119810532'
p0
.S'Epoch: 680  Error: 0.130119810532'
p0
.S'Epoch: 681  Error: 0.130119810532'
p0
.S'Epoch: 682  Error: 0.130119810532'
p0
.S'Epoch: 683  Error: 0.130119810532'
p0
.S'Epoch: 684  Error: 0.130119810532'
p0
.S'Epoch: 685  Error: 0.130119810532'
p0
.S'Epoch: 686  Error: 0.130119810532'
p0
.S'Epoch: 687  Error: 0.130119810532'
p0
.S'Epoch: 688  Error: 0.130119810532'
p0
.S'Epoch: 689  Error: 0.130119810532'
p0
.S'Epoch: 690  Error: 0.130119810532'
p0
.S'Epoch: 691  Error: 0.130119810532'
p0
.S'Epoch: 692  Error: 0.130119810532'
p0
.S'Epoch: 693  Error: 0.130119810532'
p0
.S'Epoch: 694  Error: 0.130119810532'
p0
.S'Epoch: 695  Error: 0.130119810532'
p0
.S'Epoch: 696  Error: 0.130119810532'
p0
.S'Epoch: 697  Error: 0.130119810532'
p0
.S'Epoch: 698  Error: 0.130119810532'
p0
.S'Epoch: 699  Error: 0.130119810532'
p0
.S'Epoch: 700  Error: 0.130119810532'
p0
.S'Epoch: 701  Error: 0.130119810532'
p0
.S'Epoch: 702  Error: 0.130119810532'
p0
.S'Epoch: 703  Error: 0.130119810532'
p0
.S'Epoch: 704  Error: 0.130119810532'
p0
.S'Epoch: 705  Error: 0.130119810532'
p0
.S'Epoch: 706  Error: 0.130119810532'
p0
.S'Epoch: 707  Error: 0.130119810532'
p0
.S'Epoch: 708  Error: 0.130119810532'
p0
.S'Epoch: 709  Error: 0.130119810532'
p0
.S'Epoch: 710  Error: 0.130119810532'
p0
.S'Epoch: 711  Error: 0.130119810532'
p0
.S'Epoch: 712  Error: 0.130119810532'
p0
.S'Epoch: 713  Error: 0.130119810532'
p0
.S'Epoch: 714  Error: 0.130119810532'
p0
.S'Epoch: 715  Error: 0.130119810532'
p0
.S'Epoch: 716  Error: 0.130119810532'
p0
.S'Epoch: 717  Error: 0.130119810532'
p0
.S'Epoch: 718  Error: 0.130119810532'
p0
.S'Epoch: 719  Error: 0.130119810532'
p0
.S'Epoch: 720  Error: 0.130119810532'
p0
.S'Epoch: 721  Error: 0.130119810532'
p0
.S'Epoch: 722  Error: 0.130119810532'
p0
.S'Epoch: 723  Error: 0.130119810532'
p0
.S'Epoch: 724  Error: 0.130119810532'
p0
.S'Epoch: 725  Error: 0.130119810532'
p0
.S'Epoch: 726  Error: 0.130119810532'
p0
.S'Epoch: 727  Error: 0.130119810532'
p0
.S'Epoch: 728  Error: 0.130119810532'
p0
.S'Epoch: 729  Error: 0.130119810532'
p0
.S'Epoch: 730  Error: 0.130119810532'
p0
.S'Epoch: 731  Error: 0.130119810532'
p0
.S'Epoch: 732  Error: 0.130119810532'
p0
.S'Epoch: 733  Error: 0.130119810532'
p0
.S'Epoch: 734  Error: 0.130119810532'
p0
.S'Epoch: 735  Error: 0.130119810532'
p0
.S'Epoch: 736  Error: 0.130119810532'
p0
.S'Epoch: 737  Error: 0.130119810532'
p0
.S'Epoch: 738  Error: 0.130119810532'
p0
.S'Epoch: 739  Error: 0.130119810532'
p0
.S'Epoch: 740  Error: 0.130119810532'
p0
.S'Epoch: 741  Error: 0.130119810532'
p0
.S'Epoch: 742  Error: 0.130119810532'
p0
.S'Epoch: 743  Error: 0.130119810532'
p0
.S'Epoch: 744  Error: 0.130119810532'
p0
.S'Epoch: 745  Error: 0.130119810532'
p0
.S'Epoch: 746  Error: 0.130119810532'
p0
.S'Epoch: 747  Error: 0.130119810532'
p0
.S'Epoch: 748  Error: 0.130119810532'
p0
.S'Epoch: 749  Error: 0.130119810532'
p0
.S'Epoch: 750  Error: 0.130119810532'
p0
.S'Epoch: 751  Error: 0.130119810532'
p0
.S'Epoch: 752  Error: 0.130119810532'
p0
.S'Epoch: 753  Error: 0.130119810532'
p0
.S'Epoch: 754  Error: 0.130119810532'
p0
.S'Epoch: 755  Error: 0.130119810532'
p0
.S'Epoch: 756  Error: 0.130119810532'
p0
.S'Epoch: 757  Error: 0.130119810532'
p0
.S'Epoch: 758  Error: 0.130119810532'
p0
.S'Epoch: 759  Error: 0.130119810532'
p0
.S'Epoch: 760  Error: 0.130119810532'
p0
.S'Epoch: 761  Error: 0.130119810532'
p0
.S'Epoch: 762  Error: 0.130119810532'
p0
.S'Epoch: 763  Error: 0.130119810532'
p0
.S'Epoch: 764  Error: 0.130119810532'
p0
.S'Epoch: 765  Error: 0.130119810532'
p0
.S'Epoch: 766  Error: 0.130119810532'
p0
.S'Epoch: 767  Error: 0.130119810532'
p0
.S'Epoch: 768  Error: 0.130119810532'
p0
.S'Epoch: 769  Error: 0.130119810532'
p0
.S'Epoch: 770  Error: 0.130119810532'
p0
.S'Epoch: 771  Error: 0.130119810532'
p0
.S'Epoch: 772  Error: 0.130119810532'
p0
.S'Epoch: 773  Error: 0.130119810532'
p0
.S'Epoch: 774  Error: 0.130119810532'
p0
.S'Epoch: 775  Error: 0.130119810532'
p0
.S'Epoch: 776  Error: 0.130119810532'
p0
.S'Epoch: 777  Error: 0.130119810532'
p0
.S'Epoch: 778  Error: 0.130119810532'
p0
.S'Epoch: 779  Error: 0.130119810532'
p0
.S'Epoch: 780  Error: 0.130119810532'
p0
.S'Epoch: 781  Error: 0.130119810532'
p0
.S'Epoch: 782  Error: 0.130119810532'
p0
.S'Epoch: 783  Error: 0.130119810532'
p0
.S'Epoch: 784  Error: 0.130119810532'
p0
.S'Epoch: 785  Error: 0.130119810532'
p0
.S'Epoch: 786  Error: 0.130119810532'
p0
.S'Epoch: 787  Error: 0.130119810532'
p0
.S'Epoch: 788  Error: 0.130119810532'
p0
.S'Epoch: 789  Error: 0.130119810532'
p0
.S'Epoch: 790  Error: 0.130119810532'
p0
.S'Epoch: 791  Error: 0.130119810532'
p0
.S'Epoch: 792  Error: 0.130119810532'
p0
.S'Epoch: 793  Error: 0.130119810532'
p0
.S'Epoch: 794  Error: 0.130119810532'
p0
.S'Epoch: 795  Error: 0.130119810532'
p0
.S'Epoch: 796  Error: 0.130119810532'
p0
.S'Epoch: 797  Error: 0.130119810532'
p0
.S'Epoch: 798  Error: 0.130119810532'
p0
.S'Epoch: 799  Error: 0.130119810532'
p0
.S'Epoch: 800  Error: 0.130119810532'
p0
.S'Epoch: 801  Error: 0.130119810532'
p0
.S'Epoch: 802  Error: 0.130119810532'
p0
.S'Epoch: 803  Error: 0.130119810532'
p0
.S'Epoch: 804  Error: 0.130119810532'
p0
.S'Epoch: 805  Error: 0.130119810532'
p0
.S'Epoch: 806  Error: 0.130119810532'
p0
.S'Epoch: 807  Error: 0.130119810532'
p0
.S'Epoch: 808  Error: 0.130119810532'
p0
.S'Epoch: 809  Error: 0.130119810532'
p0
.S'Epoch: 810  Error: 0.130119810532'
p0
.S'Epoch: 811  Error: 0.130119810532'
p0
.S'Epoch: 812  Error: 0.130119810532'
p0
.S'Epoch: 813  Error: 0.130119810532'
p0
.S'Epoch: 814  Error: 0.130119810532'
p0
.S'Epoch: 815  Error: 0.130119810532'
p0
.S'Epoch: 816  Error: 0.130119810532'
p0
.S'Epoch: 817  Error: 0.130119810532'
p0
.S'Epoch: 818  Error: 0.130119810532'
p0
.S'Epoch: 819  Error: 0.130119810532'
p0
.S'Epoch: 820  Error: 0.130119810532'
p0
.S'Epoch: 821  Error: 0.130119810532'
p0
.S'Epoch: 822  Error: 0.130119810532'
p0
.S'Epoch: 823  Error: 0.130119810532'
p0
.S'Epoch: 824  Error: 0.130119810532'
p0
.S'Epoch: 825  Error: 0.130119810532'
p0
.S'Epoch: 826  Error: 0.130119810532'
p0
.S'Epoch: 827  Error: 0.130119810532'
p0
.S'Epoch: 828  Error: 0.130119810532'
p0
.S'Epoch: 829  Error: 0.130119810532'
p0
.S'Epoch: 830  Error: 0.130119810532'
p0
.S'Epoch: 831  Error: 0.130119810532'
p0
.S'Epoch: 832  Error: 0.130119810532'
p0
.S'Epoch: 833  Error: 0.130119810532'
p0
.S'Epoch: 834  Error: 0.130119810532'
p0
.S'Epoch: 835  Error: 0.130119810532'
p0
.S'Epoch: 836  Error: 0.130119810532'
p0
.S'Epoch: 837  Error: 0.130119810532'
p0
.S'Epoch: 838  Error: 0.130119810532'
p0
.S'Epoch: 839  Error: 0.130119810532'
p0
.S'Epoch: 840  Error: 0.130119810532'
p0
.S'Epoch: 841  Error: 0.130119810532'
p0
.S'Epoch: 842  Error: 0.130119810532'
p0
.S'Epoch: 843  Error: 0.130119810532'
p0
.S'Epoch: 844  Error: 0.130119810532'
p0
.S'Epoch: 845  Error: 0.130119810532'
p0
.S'Epoch: 846  Error: 0.130119810532'
p0
.S'Epoch: 847  Error: 0.130119810532'
p0
.S'Epoch: 848  Error: 0.130119810532'
p0
.S'Epoch: 849  Error: 0.130119810532'
p0
.S'Epoch: 850  Error: 0.130119810532'
p0
.S'Epoch: 851  Error: 0.130119810532'
p0
.S'Epoch: 852  Error: 0.130119810532'
p0
.S'Epoch: 853  Error: 0.130119810532'
p0
.S'Epoch: 854  Error: 0.130119810532'
p0
.S'Epoch: 855  Error: 0.130119810532'
p0
.S'Epoch: 856  Error: 0.130119810532'
p0
.S'Epoch: 857  Error: 0.130119810532'
p0
.S'Epoch: 858  Error: 0.130119810532'
p0
.S'Epoch: 859  Error: 0.130119810532'
p0
.S'Epoch: 860  Error: 0.130119810532'
p0
.S'Epoch: 861  Error: 0.130119810532'
p0
.S'Epoch: 862  Error: 0.130119810532'
p0
.S'Epoch: 863  Error: 0.130119810532'
p0
.S'Epoch: 864  Error: 0.130119810532'
p0
.S'Epoch: 865  Error: 0.130119810532'
p0
.S'Epoch: 866  Error: 0.130119810532'
p0
.S'Epoch: 867  Error: 0.130119810532'
p0
.S'Epoch: 868  Error: 0.130119810532'
p0
.S'Epoch: 869  Error: 0.130119810532'
p0
.S'Epoch: 870  Error: 0.130119810532'
p0
.S'Epoch: 871  Error: 0.130119810532'
p0
.S'Epoch: 872  Error: 0.130119810532'
p0
.S'Epoch: 873  Error: 0.130119810532'
p0
.S'Epoch: 874  Error: 0.130119810532'
p0
.S'Epoch: 875  Error: 0.130119810532'
p0
.S'Epoch: 876  Error: 0.130119810532'
p0
.S'Epoch: 877  Error: 0.130119810532'
p0
.S'Epoch: 878  Error: 0.130119810532'
p0
.S'Epoch: 879  Error: 0.130119810532'
p0
.S'Epoch: 880  Error: 0.130119810532'
p0
.S'Epoch: 881  Error: 0.130119810532'
p0
.S'Epoch: 882  Error: 0.130119810532'
p0
.S'Epoch: 883  Error: 0.130119810532'
p0
.S'Epoch: 884  Error: 0.130119810532'
p0
.S'Epoch: 885  Error: 0.130119810532'
p0
.S'Epoch: 886  Error: 0.130119810532'
p0
.S'Epoch: 887  Error: 0.130119810532'
p0
.S'Epoch: 888  Error: 0.130119810532'
p0
.S'Epoch: 889  Error: 0.130119810532'
p0
.S'Epoch: 890  Error: 0.130119810532'
p0
.S'Epoch: 891  Error: 0.130119810532'
p0
.S'Epoch: 892  Error: 0.130119810532'
p0
.S'Epoch: 893  Error: 0.130119810532'
p0
.S'Epoch: 894  Error: 0.130119810532'
p0
.S'Epoch: 895  Error: 0.130119810532'
p0
.S'Epoch: 896  Error: 0.130119810532'
p0
.S'Epoch: 897  Error: 0.130119810532'
p0
.S'Epoch: 898  Error: 0.130119810532'
p0
.S'Epoch: 899  Error: 0.130119810532'
p0
.S'Epoch: 900  Error: 0.130119810532'
p0
.S'Epoch: 901  Error: 0.130119810532'
p0
.S'Epoch: 902  Error: 0.130119810532'
p0
.S'Epoch: 903  Error: 0.130119810532'
p0
.S'Epoch: 904  Error: 0.130119810532'
p0
.S'Epoch: 905  Error: 0.130119810532'
p0
.S'Epoch: 906  Error: 0.130119810532'
p0
.S'Epoch: 907  Error: 0.130119810532'
p0
.S'Epoch: 908  Error: 0.130119810532'
p0
.S'Epoch: 909  Error: 0.130119810532'
p0
.S'Epoch: 910  Error: 0.130119810532'
p0
.S'Epoch: 911  Error: 0.130119810532'
p0
.S'Epoch: 912  Error: 0.130119810532'
p0
.S'Epoch: 913  Error: 0.130119810532'
p0
.S'Epoch: 914  Error: 0.130119810532'
p0
.S'Epoch: 915  Error: 0.130119810532'
p0
.S'Epoch: 916  Error: 0.130119810532'
p0
.S'Epoch: 917  Error: 0.130119810532'
p0
.S'Epoch: 918  Error: 0.130119810532'
p0
.S'Epoch: 919  Error: 0.130119810532'
p0
.S'Epoch: 920  Error: 0.130119810532'
p0
.S'Epoch: 921  Error: 0.130119810532'
p0
.S'Epoch: 922  Error: 0.130119810532'
p0
.S'Epoch: 923  Error: 0.130119810532'
p0
.S'Epoch: 924  Error: 0.130119810532'
p0
.S'Epoch: 925  Error: 0.130119810532'
p0
.S'Epoch: 926  Error: 0.130119810532'
p0
.S'Epoch: 927  Error: 0.130119810532'
p0
.S'Epoch: 928  Error: 0.130119810532'
p0
.S'Epoch: 929  Error: 0.130119810532'
p0
.S'Epoch: 930  Error: 0.130119810532'
p0
.S'Epoch: 931  Error: 0.130119810532'
p0
.S'Epoch: 932  Error: 0.130119810532'
p0
.S'Epoch: 933  Error: 0.130119810532'
p0
.S'Epoch: 934  Error: 0.130119810532'
p0
.S'Epoch: 935  Error: 0.130119810532'
p0
.S'Epoch: 936  Error: 0.130119810532'
p0
.S'Epoch: 937  Error: 0.130119810532'
p0
.S'Epoch: 938  Error: 0.130119810532'
p0
.S'Epoch: 939  Error: 0.130119810532'
p0
.S'Epoch: 940  Error: 0.130119810532'
p0
.S'Epoch: 941  Error: 0.130119810532'
p0
.S'Epoch: 942  Error: 0.130119810532'
p0
.S'Epoch: 943  Error: 0.130119810532'
p0
.S'Epoch: 944  Error: 0.130119810532'
p0
.S'Epoch: 945  Error: 0.130119810532'
p0
.S'Epoch: 946  Error: 0.130119810532'
p0
.S'Epoch: 947  Error: 0.130119810532'
p0
.S'Epoch: 948  Error: 0.130119810532'
p0
.S'Epoch: 949  Error: 0.130119810532'
p0
.S'Epoch: 950  Error: 0.130119810532'
p0
.S'Epoch: 951  Error: 0.130119810532'
p0
.S'Epoch: 952  Error: 0.130119810532'
p0
.S'Epoch: 953  Error: 0.130119810532'
p0
.S'Epoch: 954  Error: 0.130119810532'
p0
.S'Epoch: 955  Error: 0.130119810532'
p0
.S'Epoch: 956  Error: 0.130119810532'
p0
.S'Epoch: 957  Error: 0.130119810532'
p0
.S'Epoch: 958  Error: 0.130119810532'
p0
.S'Epoch: 959  Error: 0.130119810532'
p0
.S'Epoch: 960  Error: 0.130119810532'
p0
.S'Epoch: 961  Error: 0.130119810532'
p0
.S'Epoch: 962  Error: 0.130119810532'
p0
.S'Epoch: 963  Error: 0.130119810532'
p0
.S'Epoch: 964  Error: 0.130119810532'
p0
.S'Epoch: 965  Error: 0.130119810532'
p0
.S'Epoch: 966  Error: 0.130119810532'
p0
.S'Epoch: 967  Error: 0.130119810532'
p0
.S'Epoch: 968  Error: 0.130119810532'
p0
.S'Epoch: 969  Error: 0.130119810532'
p0
.S'Epoch: 970  Error: 0.130119810532'
p0
.S'Epoch: 971  Error: 0.130119810532'
p0
.S'Epoch: 972  Error: 0.130119810532'
p0
.S'Epoch: 973  Error: 0.130119810532'
p0
.S'Epoch: 974  Error: 0.130119810532'
p0
.S'Epoch: 975  Error: 0.130119810532'
p0
.S'Epoch: 976  Error: 0.130119810532'
p0
.S'Epoch: 977  Error: 0.130119810532'
p0
.S'Epoch: 978  Error: 0.130119810532'
p0
.S'Epoch: 979  Error: 0.130119810532'
p0
.S'Epoch: 980  Error: 0.130119810532'
p0
.S'Epoch: 981  Error: 0.130119810532'
p0
.S'Epoch: 982  Error: 0.130119810532'
p0
.S'Epoch: 983  Error: 0.130119810532'
p0
.S'Epoch: 984  Error: 0.130119810532'
p0
.S'Epoch: 985  Error: 0.130119810532'
p0
.S'Epoch: 986  Error: 0.130119810532'
p0
.S'Epoch: 987  Error: 0.130119810532'
p0
.S'Epoch: 988  Error: 0.130119810532'
p0
.S'Epoch: 989  Error: 0.130119810532'
p0
.S'Epoch: 990  Error: 0.130119810532'
p0
.S'Epoch: 991  Error: 0.130119810532'
p0
.S'Epoch: 992  Error: 0.130119810532'
p0
.S'Epoch: 993  Error: 0.130119810532'
p0
.S'Epoch: 994  Error: 0.130119810532'
p0
.S'Epoch: 995  Error: 0.130119810532'
p0
.S'Epoch: 996  Error: 0.130119810532'
p0
.S'Epoch: 997  Error: 0.130119810532'
p0
.S'Epoch: 998  Error: 0.130119810532'
p0
.S'Epoch: 999  Error: 0.130119810532'
p0
.S'Epoch: 1000  Error: 0.130119810532'
p0
.S'Epoch: 1001  Error: 0.130119810532'
p0
.S'Epoch: 1002  Error: 0.130119810532'
p0
.S'Epoch: 1003  Error: 0.130119810532'
p0
.S'Epoch: 1004  Error: 0.130119810532'
p0
.S'Epoch: 1005  Error: 0.130119810532'
p0
.S'Epoch: 1006  Error: 0.130119810532'
p0
.S'Epoch: 1007  Error: 0.130119810532'
p0
.S'Epoch: 1008  Error: 0.130119810532'
p0
.S'Epoch: 1009  Error: 0.130119810532'
p0
.S'Epoch: 1010  Error: 0.130119810532'
p0
.S'Epoch: 1011  Error: 0.130119810532'
p0
.S'Epoch: 1012  Error: 0.130119810532'
p0
.S'Epoch: 1013  Error: 0.130119810532'
p0
.S'Epoch: 1014  Error: 0.130119810532'
p0
.S'Epoch: 1015  Error: 0.130119810532'
p0
.S'Epoch: 1016  Error: 0.130119810532'
p0
.S'Epoch: 1017  Error: 0.130119810532'
p0
.S'Epoch: 1018  Error: 0.130119810532'
p0
.S'Epoch: 1019  Error: 0.130119810532'
p0
.S'Epoch: 1020  Error: 0.130119810532'
p0
.S'Epoch: 1021  Error: 0.130119810532'
p0
.S'Epoch: 1022  Error: 0.130119810532'
p0
.S'Epoch: 1023  Error: 0.130119810532'
p0
.S'Epoch: 1024  Error: 0.130119810532'
p0
.S'Epoch: 1025  Error: 0.130119810532'
p0
.S'Epoch: 1026  Error: 0.130119810532'
p0
.S'Epoch: 1027  Error: 0.130119810532'
p0
.S'Epoch: 1028  Error: 0.130119810532'
p0
.S'Epoch: 1029  Error: 0.130119810532'
p0
.S'Epoch: 1030  Error: 0.130119810532'
p0
.S'Epoch: 1031  Error: 0.130119810532'
p0
.S'Epoch: 1032  Error: 0.130119810532'
p0
.S'Epoch: 1033  Error: 0.130119810532'
p0
.S'Epoch: 1034  Error: 0.130119810532'
p0
.S'Epoch: 1035  Error: 0.130119810532'
p0
.S'Epoch: 1036  Error: 0.130119810532'
p0
.S'Epoch: 1037  Error: 0.130119810532'
p0
.S'Epoch: 1038  Error: 0.130119810532'
p0
.S'Epoch: 1039  Error: 0.130119810532'
p0
.S'Epoch: 1040  Error: 0.130119810532'
p0
.S'Epoch: 1041  Error: 0.130119810532'
p0
.S'Epoch: 1042  Error: 0.130119810532'
p0
.S'Epoch: 1043  Error: 0.130119810532'
p0
.S'Epoch: 1044  Error: 0.130119810532'
p0
.S'Epoch: 1045  Error: 0.130119810532'
p0
.S'Epoch: 1046  Error: 0.130119810532'
p0
.S'Epoch: 1047  Error: 0.130119810532'
p0
.S'Epoch: 1048  Error: 0.130119810532'
p0
.S'Epoch: 1049  Error: 0.130119810532'
p0
.S'Epoch: 1050  Error: 0.130119810532'
p0
.S'Epoch: 1051  Error: 0.130119810532'
p0
.S'Epoch: 1052  Error: 0.130119810532'
p0
.S'Epoch: 1053  Error: 0.130119810532'
p0
.S'Epoch: 1054  Error: 0.130119810532'
p0
.S'Epoch: 1055  Error: 0.130119810532'
p0
.S'Epoch: 1056  Error: 0.130119810532'
p0
.S'Epoch: 1057  Error: 0.130119810532'
p0
.S'Epoch: 1058  Error: 0.130119810532'
p0
.S'Epoch: 1059  Error: 0.130119810532'
p0
.S'Epoch: 1060  Error: 0.130119810532'
p0
.S'Epoch: 1061  Error: 0.130119810532'
p0
.S'Epoch: 1062  Error: 0.130119810532'
p0
.S'Epoch: 1063  Error: 0.130119810532'
p0
.S'Epoch: 1064  Error: 0.130119810532'
p0
.S'Epoch: 1065  Error: 0.130119810532'
p0
.S'Epoch: 1066  Error: 0.130119810532'
p0
.S'Epoch: 1067  Error: 0.130119810532'
p0
.S'Epoch: 1068  Error: 0.130119810532'
p0
.S'Epoch: 1069  Error: 0.130119810532'
p0
.S'Epoch: 1070  Error: 0.130119810532'
p0
.S'Epoch: 1071  Error: 0.130119810532'
p0
.S'Epoch: 1072  Error: 0.130119810532'
p0
.S'Epoch: 1073  Error: 0.130119810532'
p0
.S'Epoch: 1074  Error: 0.130119810532'
p0
.S'Epoch: 1075  Error: 0.130119810532'
p0
.