S'Epoch: 0  Error: 0.138200055726'
p0
.S'Epoch: 1  Error: 0.138200055726'
p0
.S'Epoch: 2  Error: 0.138200055726'
p0
.S'Epoch: 3  Error: 0.138200055726'
p0
.S'Epoch: 4  Error: 0.138200055726'
p0
.S'Epoch: 5  Error: 0.138200055726'
p0
.S'Epoch: 0  Error: 0.249373084425'
p0
.S'Epoch: 1  Error: 0.249373084425'
p0
.S'Epoch: 2  Error: 0.249373084425'
p0
.S'Epoch: 3  Error: 0.249373084425'
p0
.S'Epoch: 4  Error: 0.249373084425'
p0
.S'Epoch: 5  Error: 0.249373084425'
p0
.S'Epoch: 6  Error: 0.249373084425'
p0
.S'Epoch: 7  Error: 0.249373084425'
p0
.S'Epoch: 8  Error: 0.24909445528'
p0
.S'Epoch: 9  Error: 0.250208971858'
p0
.S'Epoch: 10  Error: 0.251602117581'
p0
.S'Epoch: 11  Error: 0.256617442184'
p0
.S'Epoch: 12  Error: 0.263861799944'
p0
.S'Epoch: 13  Error: 0.269434382836'
p0
.S'Epoch: 14  Error: 0.284480356645'
p0
.S'Epoch: 15  Error: 0.295904151574'
p0
.S'Epoch: 16  Error: 0.309835608805'
p0
.S'Epoch: 17  Error: 0.310392867094'
p0
.