S'1283608232811773952,195,88,146'
p1
.S'1283595706363502592,195,21,187'
p1
.S'1283598036287070208,196,139,14'
p1
.S'1283594310897836032,196,24,151'
p1
.S'1283616609428533248,203,131,316'
p1
.S'1283598811406999552,196,113,120'
p1
.S'1283572210170765312,195,0,106'
p1
.S'1283616099686133760,177,68,26'
p1
.S'1283603552417521664,194,70,145'
p1
.S'1283606724259069952,190,15,108'
p1
.S'1283586104754855936,195,0,79'
p1
.S'1283606588711927808,195,22,16'
p1
.S'1283600283552944128,183,40,345'
p1
.S'1282772732521697280,193,126,163'
p1
.S'1282782763539730432,193,17,29'
p1
.S'1282915035811303424,194,3,5'
p1
.S'1282906927109931008,137,227,188'
p1
.S'1282771464542158848,124,0,85'
p1
.S'1282941598019248128,195,0,0'
p1
.S'1282809679604535296,194,36,33'
p1
.S'1282858243844407296,179,2,73'
p1
.S'1282918428256227328,190,21,54'
p1
.S'1282919167687303168,192,157,89'
p1
.S'1282887638667665408,176,9,47'
p1
.S'1282875174098214912,195,67,59'
p1
.S'1282810244246253568,190,252,115'
p1
.S'1282927218489794560,194,0,5'
p1
.S'1282821828573859840,188,163,184'
p1
.S'1282831602615001088,196,48,111'
p1
.S'1282899490558861312,196,18,27'
p1
.S'1282854181669142528,179,206,133'
p1
.S'1282827087509880832,195,125,79'
p1
.S'1282906351194324992,195,51,8'
p1
.S'1282827425474121728,179,1,37'
p1
.S'1282882412606849024,195,4,3'
p1
.S'1283676300023844864,174,82,73'
p1
.S'1283665904768643072,195,22,134'
p1
.S'1283625839304589312,196,23,6'
p1
.S'1283688061070712832,170,115,154'
p1
.S'1283701487163387904,194,0,47'
p1
.S'1283649593862987776,186,28,49'
p1
.S'1283653245650477056,180,55,119'
p1
.S'1283708661063364608,195,0,10'
p1
.S'1283630682823897088,181,26,129'
p1
.S'1283648551305564160,192,54,72'
p1
.S'1283646987287371776,196,246,376'
p1
.S'1283690544832884736,196,92,86'
p1
.S'1283703431193907200,191,60,79'
p1
.S'1283628983359524864,196,148,175'
p1
.S'1283623873078059008,193,13,193'
p1
.S'1283639468657950720,194,0,6'
p1
.S'1283682568533168128,195,9,9'
p1
.S'1283634952658964480,181,96,106'
p1
.S'1283641871599542272,195,114,91'
p1
.S'1283659789515759616,196,63,88'
p1
.S'1283645005835501568,182,0,0'
p1
.S'1283774260271620096,156,92,108'
p1
.S'1283646778075672576,176,0,42'
p1
.S'1283658434809663488,194,13,14'
p1
.S'1283677006865272832,188,66,95'
p1
.S'1283649369370951680,195,55,152'
p1
.S'1283626040488534016,196,19,48'
p1
.S'1283648693190946816,131,3,4'
p1
.S'1283250234956369920,196,323,421'
p1
.S'1283283657439969280,194,9,60'
p1
.S'1283256620259971072,196,13,46'
p1
.S'1283204354648236032,195,20,165'
p1
.S'1283289910065139712,195,361,189'
p1
.S'1283223352140009472,195,24,49'
p1
.S'1283211441658826752,188,33,13'
p1
.S'1283245333950365696,196,1,12'
p1
.S'1283263437430214656,195,135,51'
p1
.S'1283191932218429440,157,2,4'
p1
.S'1283199714006872064,194,259,255'
p1
.S'1283237750791389184,195,81,42'
p1
.S'1283243997732687872,177,12,29'
p1
.S'1283215966385668096,177,1,117'
p1
.S'1283240728625598464,196,11,42'
p1
.S'1283247100939399168,172,40,11'
p1
.S'1283317455431012352,187,91,41'
p1
.S'1283203690320756736,178,36,109'
p1
.S'1283248878095130624,195,164,138'
p1
.S'1283218393918525440,189,41,11'
p1
.S'1283187718734143488,195,209,108'
p1
.S'1283228184867213312,195,12,35'
p1
.S'1283245965998280704,193,68,12'
p1
.S'1283277604203945984,196,191,100'
p1
.S'1283245164219518976,195,36,7'
p1
.S'1283254581425541120,195,37,54'
p1
.S'1283247569652387840,190,3,39'
p1
.S'1283216640423133184,191,116,86'
p1
.S'1283204354648236032,195,20,165'
p1
.S'1283218393918525440,189,41,11'
p1
.S'1283240970582196224,196,73,26'
p1
.S'1293667376109387776,195,193,68'
p1
.S'1293651264529629184,195,82,67'
p1
.S'1293657045110808576,195,0,20'
p1
.S'1293651941070905344,181,154,101'
p1
.S'1293632742235451392,185,1,29'
p1
.S'1293637481266606080,193,67,143'
p1
.S'1293594939871379456,195,1,35'
p1
.S'1293645686528684032,141,162,53'
p1
.S'1293637114696798208,195,52,83'
p1
.S'1293656052084191232,99,12,10'
p1
.S'1293639217104474112,189,0,99'
p1
.S'1293671016639635456,178,44,180'
p1
.S'1293661596555563008,158,182,146'
p1
.S'1293646237773737984,191,151,145'
p1
.S'1293664980394254336,195,2,160'
p1
.S'1293649080555364352,169,43,67'
p1
.S'1293642705037099008,195,0,16'
p1
.S'1293673597671448576,196,61,96'
p1
.S'1293670039593144320,195,0,18'
p1
.S'1293663168261963776,188,71,44'
p1
.S'1293506949270401025,196,18,11'
p1
.S'1293651438484041728,189,74,72'
p1
.S'1293650807631568896,194,2,83'
p1
.S'1293631475878678528,196,40,147'
p1
.S'1293650144998440960,181,42,38'
p1
.S'1293516246918291456,195,1,37'
p1
.S'1293666634296639488,81,0,9'
p1
.S'1293648730377154560,192,0,6'
p1
.S'1293641445634658304,195,1,2'
p1
.S'1293527154843430912,195,12,7'
p1
.S'1293657366532947968,195,2,8'
p1
.S'1293636193833119744,170,8,9'
p1
.S'1293626532790943744,195,71,151'
p1
.S'1293674538881687552,194,141,216'
p1
.S'1293665830214737920,194,266,202'
p1
.S'1293553157443637248,196,143,0'
p1
.S'1293655830486753280,195,10,28'
p1
.S'1293621194423468032,186,2,24'
p1
.S'1293625710577168384,195,11,13'
p1
.S'1293627638556078080,195,140,32'
p1
.S'1293639233441062912,195,2,24'
p1
.S'1293658657690656768,196,197,138'
p1
.S'1293672129191182337,195,28,91'
p1
.S'1293645880699875328,174,184,894'
p1
.S'1293660020592009216,190,81,39'
p1
.S'1293659146461536256,196,186,215'
p1
.S'1293656011001171968,150,21,101'
p1
.S'1293535604407427072,184,151,181'
p1
.S'1293504292644605952,196,90,215'
p1
.S'1293499472730648576,196,38,157'
p1
.S'1293514280813371392,195,10,48'
p1
.S'1293665611792183296,196,45,143'
p1
.S'1293609165763371008,195,14,15'
p1
.S'1293668505237254144,195,53,165'
p1
.S'1293645149083226112,189,56,158'
p1
.S'1293662691013058560,131,0,44'
p1
.S'1293667515276361728,193,3,39'
p1
.S'1293668168551772160,192,49,68'
p1
.S'1293597895198969856,195,0,29'
p1
.S'1293666801422893056,128,55,12'
p1
.S'1293646920958808064,194,4,63'
p1
.S'1293629411387715584,195,132,132'
p1
.S'1293642387440443392,186,0,1'
p1
.S'1293568882455490560,188,100,8'
p1
.S'1293630612338593792,195,149,515'
p1
.S'1293644665383436288,174,94,95'
p1
.S'1293653439364349952,193,0,77'
p1
.S'1293648386838405120,194,0,20'
p1
.S'1293676749510561793,195,2,54'
p1
.S'1293611012314296320,195,25,59'
p1
.S'1293614086919192576,121,0,0'
p1
.S'1293644015526371328,184,0,0'
p1
.S'1293672392392310784,192,67,168'
p1
.S'1293622423345905664,189,44,45'
p1
.S'1293672665160523776,196,63,51'
p1
.S'1293554892576792576,195,191,36'
p1
.S'1293642450568658944,195,43,324'
p1
.S'1293667376109387776,195,193,68'
p1
.S'1293666598837772288,157,0,17'
p1
.S'1293651264529629184,195,82,67'
p1
.S'1293672935324016640,133,51,42'
p1
.S'1293657045110808576,195,0,20'
p1
.S'1293651941070905344,181,154,101'
p1
.S'1293632742235451392,185,1,29'
p1
.S'1293637481266606080,193,67,143'
p1
.S'1293594939871379456,195,1,35'
p1
.S'1293645686528684032,141,162,53'
p1
.S'1293637114696798208,195,52,83'
p1
.S'1293656052084191232,99,12,10'
p1
.S'1293639217104474112,189,0,99'
p1
.S'1293671016639635456,178,44,180'
p1
.S'1293661596555563008,158,182,146'
p1
.S'1293646237773737984,191,151,145'
p1
.S'1293664980394254336,195,2,160'
p1
.S'1293649080555364352,169,43,67'
p1
.S'1293642705037099008,195,0,16'
p1
.S'1293673597671448576,196,61,96'
p1
.S'1293670039593144320,195,0,18'
p1
.S'1293663168261963776,188,71,44'
p1
.S'1293506949270401025,196,18,11'
p1
.S'1293651438484041728,189,74,72'
p1
.S'1293650807631568896,194,2,83'
p1
.S'1293631475878678528,196,40,147'
p1
.S'1293650144998440960,181,42,38'
p1
.S'1293516246918291456,195,1,37'
p1
.S'1293666634296639488,81,0,9'
p1
.S'1293648730377154560,192,0,6'
p1
.S'1293641445634658304,195,1,2'
p1
.S'1293527154843430912,195,12,7'
p1
.S'1293657366532947968,195,2,8'
p1
.S'1293636193833119744,170,8,9'
p1
.S'1293626532790943744,195,71,151'
p1
.S'1293674538881687552,194,141,216'
p1
.S'1293665830214737920,194,266,202'
p1
.S'1293553157443637248,196,143,0'
p1
.S'1293655830486753280,195,10,28'
p1
.S'1293621194423468032,186,2,24'
p1
.S'1293625710577168384,195,11,13'
p1
.S'1293627638556078080,195,140,32'
p1
.S'1293639233441062912,195,2,24'
p1
.S'1293658657690656768,196,197,138'
p1
.S'1293672129191182337,195,28,91'
p1
.S'1293645880699875328,174,184,894'
p1
.S'1293660020592009216,190,81,39'
p1
.S'1293659146461536256,196,186,215'
p1
.S'1293656011001171968,150,21,101'
p1
.S'1293535604407427072,184,151,181'
p1
.S'1293504292644605952,196,90,215'
p1
.S'1293499472730648576,196,38,157'
p1
.S'1293514280813371392,195,10,48'
p1
.S'1293665611792183296,196,45,143'
p1
.S'1293609165763371008,195,14,15'
p1
.S'1293668505237254144,195,53,165'
p1
.S'1293645149083226112,189,56,158'
p1
.S'1293662691013058560,131,0,44'
p1
.S'1293667515276361728,193,3,39'
p1
.S'1293668168551772160,192,49,68'
p1
.S'1293597895198969856,195,0,29'
p1
.S'1293666801422893056,128,55,12'
p1
.S'1293646920958808064,194,4,63'
p1
.S'1293629411387715584,195,132,132'
p1
.S'1293642387440443392,186,0,1'
p1
.S'1293568882455490560,188,100,8'
p1
.S'1293630612338593792,195,149,515'
p1
.S'1293644665383436288,174,94,95'
p1
.S'1293653439364349952,193,0,77'
p1
.S'1293648386838405120,194,0,20'
p1
.S'1293676749510561793,195,2,54'
p1
.S'1293611012314296320,195,25,59'
p1
.S'1293614086919192576,121,0,0'
p1
.S'1293644015526371328,184,0,0'
p1
.S'1293672392392310784,192,67,168'
p1
.S'1293622423345905664,189,44,45'
p1
.S'1293672665160523776,196,63,51'
p1
.S'1293554892576792576,195,191,36'
p1
.S'1282508294237339648,194,0,6'
p1
.S'1293642450568658944,195,43,324'
p1
.S'1293666598837772288,157,0,17'
p1
.S'1282499573650227200,195,2,101'
p1
.S'1293672935324016640,133,51,42'
p1
.S'1282532160074919936,195,4,85'
p1
.S'1282511620253339648,195,40,108'
p1
.S'1282484959118094336,196,108,210'
p1
.S'1282537001102745600,193,131,90'
p1
.S'1282433335825686528,195,129,150'
p1
.S'1282533393388974080,194,128,115'
p1
.S'1282489382939000832,191,5,61'
p1
.S'1282430864458407936,179,45,123'
p1
.S'1282564150727938048,183,0,112'
p1
.S'1282515198326038528,196,63,84'
p1
.S'1282520525771874304,195,9,127'
p1
.S'1282474271360323584,194,0,0'
p1
.S'1282466487206064128,196,38,33'
p1
.S'1282470658689351680,180,17,38'
p1
.S'1282500458405310464,196,63,47'
p1
.S'1282496053668900864,172,14,29'
p1
.S'1282429222262398976,134,2,35'
p1
.S'1282495593792634880,189,50,52'
p1
.S'1288694878842523648,163,103,135'
p1
.S'1288780250406658048,195,1,2'
p1
.S'1288655624221372416,195,74,107'
p1
.S'1288654099738718208,195,188,11'
p1
.S'1288727047841484800,196,178,65'
p1
.S'1288706430454857728,178,16,78'
p1
.S'1288657296758808576,195,1,9'
p1
.S'1288729738189627392,195,54,57'
p1
.S'1288651961364844544,176,51,48'
p1
.S'1288669426337685504,196,18,81'
p1
.S'1288685292211056640,195,32,93'
p1
.S'1288687467062763520,196,87,237'
p1
.S'1288654839664238592,195,26,62'
p1
.S'1288669085349113856,196,9,12'
p1
.S'1288668348296716288,196,3,27'
p1
.S'1288715788450406400,196,169,118'
p1
.S'1288735862192324608,190,195,190'
p1
.S'1288695291549245440,196,32,152'
p1
.S'1288676113589612544,196,30,46'
p1
.S'1288688404061691904,182,63,55'
p1
.S'1288679252530958336,196,16,9'
p1
.S'1288688054147629056,195,124,130'
p1
.S'1288705705666613248,193,19,70'
p1
.S'1288754483450863616,165,1,5'
p1
.S'1288723291917762560,194,89,183'
p1
.S'1288811871155392512,193,5,62'
p1
.S'1288670666656313344,186,59,83'
p1
.S'1288700838897934336,173,0,4'
p1
.S'1288657794203295744,193,76,100'
p1
.S'1288724433691348992,179,34,55'
p1
.S'1288669049861369856,196,171,322'
p1
.S'1288676467382853632,195,3,15'
p1
.S'1288699622487101440,195,79,183'
p1
.S'1288729559449448448,194,169,148'
p1
.S'1288739943954747392,115,26,78'
p1
.S'1288665811652939776,384,127,202'
p1
.S'1288659393328062464,195,3,2'
p1
.S'1288665768887767040,196,67,103'
p1
.S'1288652489389907968,191,0,28'
p1
.S'1288709802767638528,196,79,93'
p1
.S'1288754550077349888,196,71,3'
p1
.S'1288687188221321216,114,26,27'
p1
.S'1288678772681363456,195,12,35'
p1
.S'1288666510776328192,194,135,143'
p1
.S'1288760289071964160,195,69,37'
p1
.S'1288685402781802496,191,104,162'
p1
.S'1288661730024701952,196,1,69'
p1
.S'1288695237606584320,194,22,83'
p1
.S'1288658529003151360,195,0,3'
p1
.S'1288745284343578624,192,192,135'
p1
.S'1288658772545642496,195,1,13'
p1
.S'1288696586968735744,193,54,113'
p1
.S'1288651493158866944,193,73,108'
p1
.S'1288798044263211008,190,337,262'
p1
.S'1288665791377657856,196,185,2'
p1
.S'1288747193649557504,204,3,45'
p1
.S'1288729256780054528,195,1,46'
p1
.S'1288672331362971648,192,14,26'
p1
.S'1288686800390750208,195,111,119'
p1
.S'1288706575850520576,195,78,49'
p1
.S'1288704422112800768,195,16,47'
p1
.S'1288786389496209408,196,129,28'
p1
.S'1288693003766149120,179,86,12'
p1
.S'1288776786993696768,193,6,44'
p1
.S'1288700641946275840,196,79,73'
p1
.S'1288711717781762048,196,43,27'
p1
.S'1288692941841911808,196,90,126'
p1
.S'1288664230484119552,186,95,74'
p1
.S'1288698788936327168,149,127,68'
p1
.S'1288694878842523648,163,103,135'
p1
.S'1288734118737223680,195,196,230'
p1
.S'1288780250406658048,195,1,2'
p1
.S'1288678364781109248,166,22,93'
p1
.S'1288655624221372416,195,74,107'
p1
.S'1288691056174673920,196,164,25'
p1
.S'1288654099738718208,195,188,11'
p1
.S'1288657502376267776,196,145,55'
p1
.S'1288727047841484800,196,178,65'
p1
.S'1288706430454857728,178,16,78'
p1
.S'1288697929729183744,180,5,32'
p1
.S'1288657296758808576,195,1,9'
p1
.S'1288670172190228480,196,196,101'
p1
.S'1288743829172277248,194,0,0'
p1
.S'1288729738189627392,195,54,57'
p1
.S'1288764104638951424,195,22,43'
p1
.S'1288651961364844544,176,51,48'
p1
.S'1288652528522780672,180,0,0'
p1
.S'1288669426337685504,196,18,81'
p1
.S'1288663713192321024,129,171,207'
p1
.S'1288669033759424512,161,12,40'
p1
.S'1288685292211056640,195,32,93'
p1
.S'1288687467062763520,196,87,237'
p1
.S'1288773993427533824,195,88,6'
p1
.S'1288654839664238592,195,26,62'
p1
.S'1288684307145244672,195,7,12'
p1
.S'1288669085349113856,196,9,12'
p1
.S'1288674464632053760,195,211,85'
p1
.S'1288668348296716288,196,3,27'
p1
.S'1288682252192329728,194,127,139'
p1
.S'1288698756539551744,193,134,7'
p1
.S'1288715788450406400,196,169,118'
p1
.S'1288666236913410048,196,10,106'
p1
.S'1288735862192324608,190,195,190'
p1
.S'1288717926677241856,195,6,61'
p1
.S'1288695291549245440,196,32,152'
p1
.S'1288721304803221504,187,35,42'
p1
.S'1288676113589612544,196,30,46'
p1
.S'1288688404061691904,182,63,55'
p1
.S'1288676619070128128,190,180,130'
p1
.S'1288651106968289280,194,2,83'
p1
.S'1288679252530958336,196,16,9'
p1
.S'1288673288784404480,190,70,53'
p1
.S'1288688054147629056,195,124,130'
p1
.S'1288669215502786560,196,14,81'
p1
.S'1288705705666613248,193,19,70'
p1
.S'1288736252673617920,196,0,2'
p1
.S'1288754483450863616,165,1,5'
p1
.S'1288651235654262784,151,7,4'
p1
.S'1288723291917762560,194,89,183'
p1
.S'1288681376769781760,182,62,67'
p1
.S'1288811871155392512,193,5,62'
p1
.S'1288670666656313344,186,59,83'
p1
.S'1288659065828155392,193,6,24'
p1
.S'1288700838897934336,173,0,4'
p1
.S'1288689009983442944,185,1,125'
p1
.S'1288808386825523200,196,103,165'
p1
.S'1288657794203295744,193,76,100'
p1
.S'1288724433691348992,179,34,55'
p1
.S'1288669049861369856,196,171,322'
p1
.S'1288676467382853632,195,3,15'
p1
.S'1288699622487101440,195,79,183'
p1
.S'1288729559449448448,194,169,148'
p1
.S'1288739943954747392,115,26,78'
p1
.S'1288665811652939776,384,127,202'
p1
.S'1288659393328062464,195,3,2'
p1
.S'1288665768887767040,196,67,103'
p1
.S'1288652489389907968,191,0,28'
p1
.S'1288709802767638528,196,79,93'
p1
.S'1288754550077349888,196,71,3'
p1
.S'1288687188221321216,114,26,27'
p1
.S'1288678772681363456,195,12,35'
p1
.S'1288666510776328192,194,135,143'
p1
.S'1288760289071964160,195,69,37'
p1
.S'1288685402781802496,191,104,162'
p1
.S'1288661730024701952,196,1,69'
p1
.S'1288695237606584320,194,22,83'
p1
.S'1282463017149812736,171,0,7'
p1
.S'1288658529003151360,195,0,3'
p1
.S'1282520525771874304,195,9,127'
p1
.S'1288745284343578624,192,192,135'
p1
.S'1282543508020215808,195,3,21'
p1
.S'1288658772545642496,195,1,13'
p1
.S'1282514487110963200,196,7,53'
p1
.S'1288696586968735744,193,54,113'
p1
.S'1288651493158866944,193,73,108'
p1
.S'1282543701096644608,196,120,74'
p1
.S'1288798044263211008,190,337,262'
p1
.S'1282461310953070592,196,81,123'
p1
.S'1282467048492060672,195,26,85'
p1
.S'1288665791377657856,196,185,2'
p1
.S'1288747193649557504,204,3,45'
p1
.S'1282564944419782656,195,2,0'
p1
.S'1288729256780054528,195,1,46'
p1
.S'1282508964562862080,196,63,33'
p1
.S'1288672331362971648,192,14,26'
p1
.S'1282459697320493056,196,54,129'
p1
.S'1288686800390750208,195,111,119'
p1
.S'1282582874536685568,196,169,146'
p1
.S'1288706575850520576,195,78,49'
p1
.S'1288704422112800768,195,16,47'
p1
.S'1282537001102745600,193,131,90'
p1
.S'1282525613420404736,161,3,42'
p1
.S'1288786389496209408,196,129,28'
p1
.S'1282470658689351680,180,17,38'
p1
.S'1288693003766149120,179,86,12'
p1
.S'1282545483340005376,196,63,98'
p1
.S'1282478311117049856,196,202,179'
p1
.S'1288776786993696768,193,6,44'
p1
.S'1282540674989879296,185,25,29'
p1
.S'1288700641946275840,196,79,73'
p1
.S'1282495075209158656,190,88,31'
p1
.S'1288711717781762048,196,43,27'
p1
.S'1282504995425644544,195,1,3'
p1
.S'1288692941841911808,196,90,126'
p1
.S'1282519331980627968,155,1,16'
p1
.S'1288664230484119552,186,95,74'
p1
.S'1288698788936327168,149,127,68'
p1
.S'1288734118737223680,195,196,230'
p1
.S'1288678364781109248,166,22,93'
p1
.S'1288691056174673920,196,164,25'
p1
.S'1288657502376267776,196,145,55'
p1
.S'1288697929729183744,180,5,32'
p1
.S'1288670172190228480,196,196,101'
p1
.S'1288743829172277248,194,0,0'
p1
.S'1288764104638951424,195,22,43'
p1
.S'1288652528522780672,180,0,0'
p1
.S'1288663713192321024,129,171,207'
p1
.S'1288669033759424512,161,12,40'
p1
.S'1288773993427533824,195,88,6'
p1
.S'1288684307145244672,195,7,12'
p1
.S'1288674464632053760,195,211,85'
p1
.S'1288682252192329728,194,127,139'
p1
.S'1288698756539551744,193,134,7'
p1
.S'1288666236913410048,196,10,106'
p1
.S'1288717926677241856,195,6,61'
p1
.S'1288721304803221504,187,35,42'
p1
.S'1288676619070128128,190,180,130'
p1
.S'1288651106968289280,194,2,83'
p1
.S'1288673288784404480,190,70,53'
p1
.S'1288669215502786560,196,14,81'
p1
.S'1288736252673617920,196,0,2'
p1
.S'1288651235654262784,151,7,4'
p1
.S'1288681376769781760,182,62,67'
p1
.S'1288659065828155392,193,6,24'
p1
.S'1288689009983442944,185,1,125'
p1
.S'1288808386825523200,196,103,165'
p1
.S'1282463017149812736,171,0,7'
p1
.S'1282520525771874304,195,9,127'
p1
.S'1282543508020215808,195,3,21'
p1
.S'1282514487110963200,196,7,53'
p1
.S'1282543701096644608,196,120,74'
p1
.S'1282461310953070592,196,81,123'
p1
.S'1282467048492060672,195,26,85'
p1
.S'1282564944419782656,195,2,0'
p1
.S'1282508964562862080,196,63,33'
p1
.S'1282459697320493056,196,54,129'
p1
.S'1282582874536685568,196,169,146'
p1
.S'1282537001102745600,193,131,90'
p1
.S'1282525613420404736,161,3,42'
p1
.S'1282470658689351680,180,17,38'
p1
.S'1282545483340005376,196,63,98'
p1
.S'1282478311117049856,196,202,179'
p1
.S'1282540674989879296,185,25,29'
p1
.S'1282495075209158656,190,88,31'
p1
.S'1282504995425644544,195,1,3'
p1
.S'1282519331980627968,155,1,16'
p1
.S'1282545483340005376,196,63,98'
p1
.S'1282447043109265408,195,80,15'
p1
.S'1282532160074919936,195,4,85'
p1
.S'1282532885878272000,196,8,23'
p1
.S'1283978462461612032,196,113,80'
p1
.S'1283978494967422976,195,2,29'
p1
.S'1283946352459792384,195,97,249'
p1
.S'1284043442938855424,195,173,247'
p1
.S'1283980826480652288,163,0,1'
p1
.S'1284029359816630272,195,0,65'
p1
.S'1283940189836062720,193,19,6'
p1
.S'1292895485216366592,188,0,1'
p1
.S'1292972692261490688,182,98,142'
p1
.S'1292918513794777088,186,1,37'
p1
.S'1292984787992502272,191,22,52'
p1
.S'1293010598178729984,193,8,51'
p1
.S'1292984080106934272,192,102,127'
p1
.S'1292945408305291264,194,0,9'
p1
.S'1292987373864800256,163,5,52'
p1
.S'1292950580272496640,195,51,22'
p1
.S'1293031862738042880,194,1,17'
p1
.S'1293016382786740224,196,0,65'
p1
.S'1292912999505514496,150,0,62'
p1
.S'1293006062366101504,139,62,105'
p1
.S'1293015910080237568,184,2,7'
p1
.S'1292969177266929664,176,45,4'
p1
.S'1293009360863313920,196,245,107'
p1
.S'1293011962216833024,196,188,181'
p1
.S'1293023186883178496,192,0,2'
p1
.S'1293005877254955008,195,83,74'
p1
.S'1293022009974013952,170,88,120'
p1
.S'1292970251893784576,127,16,14'
p1
.S'1293011393620111360,196,81,124'
p1
.S'1292985844759953408,195,65,77'
p1
.S'1293034122800963584,191,8,31'
p1
.S'1293006132293603328,181,137,86'
p1
.S'1292948154928574464,195,4,5'
p1
.S'1293016906298744832,190,99,67'
p1
.S'1292931768168615936,194,13,6'
p1
.S'1292986282045489152,195,7,32'
p1
.S'1293013830158413824,196,9,213'
p1
.S'1293002422020694016,196,75,137'
p1
.S'1292987142100099072,196,105,109'
p1
.S'1292980748458106880,196,13,49'
p1
.S'1292941039547695104,196,35,30'
p1
.S'1292912867141918720,177,3,2'
p1
.S'1292958369254109184,192,11,12'
p1
.S'1292980625800101888,194,486,647'
p1
.S'1293040077882179584,195,3,72'
p1
.S'1292937061258948608,162,2,3'
p1
.S'1292943282590167040,186,9,84'
p1
.S'1293028828213583872,189,95,47'
p1
.S'1292961463249612800,191,5,43'
p1
.S'1292985422368182272,169,4,21'
p1
.S'1292936152923426816,195,1,23'
p1
.S'1293003342750294016,185,47,24'
p1
.S'1293029986017873920,196,41,13'
p1
.S'1293030299059539968,194,194,117'
p1
.S'1292938756390821888,196,45,99'
p1
.S'1293002036392194048,196,14,111'
p1
.S'1292987661933522944,196,91,165'
p1
.S'1293012004126470144,194,226,115'
p1
.S'1292969999270555648,195,185,64'
p1
.S'1293011125897940992,194,16,23'
p1
.S'1292999612076122112,195,3,45'
p1
.S'1293007645019914240,195,5,51'
p1
.S'1293011217597992960,195,42,39'
p1
.S'1292936060489596928,193,59,16'
p1
.S'1293026742495277056,196,20,33'
p1
.S'1292946003837812736,195,17,80'
p1
.S'1292981716046503936,191,149,164'
p1
.S'1292979475860090880,180,24,1'
p1
.S'1293014886187991040,196,25,88'
p1
.S'1293031165154217984,195,59,176'
p1
.S'1293010770208391168,196,73,110'
p1
.S'1292927924214837248,195,9,30'
p1
.S'1293014845150601216,193,89,70'
p1
.S'1292895485216366592,188,0,1'
p1
.S'1292995965212889088,161,99,73'
p1
.S'1292972692261490688,182,98,142'
p1
.S'1292908833240715264,192,198,219'
p1
.S'1292968006095450112,178,1,19'
p1
.S'1292918513794777088,186,1,37'
p1
.S'1292984787992502272,191,22,52'
p1
.S'1292957948968116224,151,158,150'
p1
.S'1293010598178729984,193,8,51'
p1
.S'1292951442977611776,195,29,86'
p1
.S'1292980300724551680,191,48,19'
p1
.S'1292984080106934272,192,102,127'
p1
.S'1292999682146078720,97,0,4'
p1
.S'1293005309597851648,145,20,30'
p1
.S'1292945408305291264,194,0,9'
p1
.S'1293024709654790144,189,191,269'
p1
.S'1292987373864800256,163,5,52'
p1
.S'1292971387174170624,189,255,283'
p1
.S'1292950580272496640,195,51,22'
p1
.S'1293017497037148160,193,10,56'
p1
.S'1292938587310084096,195,24,0'
p1
.S'1293031862738042880,194,1,17'
p1
.S'1292992394412920832,195,97,50'
p1
.S'1293016382786740224,196,0,65'
p1
.S'1293033203573346304,161,28,43'
p1
.S'1292912999505514496,150,0,62'
p1
.S'1293006062366101504,139,62,105'
p1
.S'1293015910080237568,184,2,7'
p1
.S'1292946589530345472,196,154,71'
p1
.S'1292997057287770112,174,132,76'
p1
.S'1292969177266929664,176,45,4'
p1
.S'1292929369219923968,195,19,41'
p1
.S'1293009360863313920,196,245,107'
p1
.S'1293008045835800576,195,36,82'
p1
.S'1293011962216833024,196,188,181'
p1
.S'1292984433838071808,189,219,109'
p1
.S'1292988582595805184,129,93,13'
p1
.S'1293023186883178496,192,0,2'
p1
.S'1293033683338788864,193,43,47'
p1
.S'1293005877254955008,195,83,74'
p1
.S'1293009812979941376,196,2,11'
p1
.S'1293022009974013952,170,88,120'
p1
.S'1293011316214255616,193,179,158'
p1
.S'1292970251893784576,127,16,14'
p1
.S'1292998380045459456,190,6,288'
p1
.S'1293011393620111360,196,81,124'
p1
.S'1292954812060942336,195,0,16'
p1
.S'1292985844759953408,195,65,77'
p1
.S'1292912131947495424,180,42,132'
p1
.S'1293034122800963584,191,8,31'
p1
.S'1292933943972216832,195,7,282'
p1
.S'1293006132293603328,181,137,86'
p1
.S'1292948154928574464,195,4,5'
p1
.S'1293022410861322240,196,11,11'
p1
.S'1293016906298744832,190,99,67'
p1
.S'1293016852339240960,196,10,33'
p1
.S'1292931768168615936,194,13,6'
p1
.S'1292986282045489152,195,7,32'
p1
.S'1293013830158413824,196,9,213'
p1
.S'1293002422020694016,196,75,137'
p1
.S'1292987142100099072,196,105,109'
p1
.S'1292980748458106880,196,13,49'
p1
.S'1292941039547695104,196,35,30'
p1
.S'1292912867141918720,177,3,2'
p1
.S'1292958369254109184,192,11,12'
p1
.S'1292980625800101888,194,486,647'
p1
.S'1293040077882179584,195,3,72'
p1
.S'1292937061258948608,162,2,3'
p1
.S'1292943282590167040,186,9,84'
p1
.S'1293028828213583872,189,95,47'
p1
.S'1292961463249612800,191,5,43'
p1
.S'1292985422368182272,169,4,21'
p1
.S'1292936152923426816,195,1,23'
p1
.S'1293003342750294016,185,47,24'
p1
.S'1293029986017873920,196,41,13'
p1
.S'1293030299059539968,194,194,117'
p1
.S'1292938756390821888,196,45,99'
p1
.S'1293002036392194048,196,14,111'
p1
.S'1292987661933522944,196,91,165'
p1
.S'1283633231136194560,158,83,323'
p1
.S'1293012004126470144,194,226,115'
p1
.S'1283595763402334208,195,95,140'
p1
.S'1292969999270555648,195,185,64'
p1
.S'1283620080978427904,196,6,75'
p1
.S'1283566491257974784,178,174,236'
p1
.S'1293011125897940992,194,16,23'
p1
.S'1292999612076122112,195,3,45'
p1
.S'1283600283552944128,183,40,345'
p1
.S'1283651464996487168,195,178,103'
p1
.S'1293007645019914240,195,5,51'
p1
.S'1283618170934554624,194,47,153'
p1
.S'1293011217597992960,195,42,39'
p1
.S'1292936060489596928,193,59,16'
p1
.S'1283626040488534016,196,19,48'
p1
.S'1293026742495277056,196,20,33'
p1
.S'1283589023369170944,193,194,224'
p1
.S'1292946003837812736,195,17,80'
p1
.S'1292981716046503936,191,149,164'
p1
.S'1283608483664719872,178,13,54'
p1
.S'1283588797153570816,189,108,109'
p1
.S'1292979475860090880,180,24,1'
p1
.S'1283591670826475520,195,149,34'
p1
.S'1293014886187991040,196,25,88'
p1
.S'1283662059883659264,195,0,20'
p1
.S'1283612481725911040,194,77,42'
p1
.S'1283625098535940096,131,0,69'
p1
.S'1293031165154217984,195,59,176'
p1
.S'1283610254625701888,196,30,142'
p1
.S'1293010770208391168,196,73,110'
p1
.S'1292927924214837248,195,9,30'
p1
.S'1283623873078059008,193,13,193'
p1
.S'1283633856612311040,196,6,42'
p1
.S'1293014845150601216,193,89,70'
p1
.S'1283639468657950720,194,0,6'
p1
.S'1292995965212889088,161,99,73'
p1
.S'1283566151577845760,196,30,11'
p1
.S'1292908833240715264,192,198,219'
p1
.S'1292968006095450112,178,1,19'
p1
.S'1283617071015612416,194,42,26'
p1
.S'1292957948968116224,151,158,150'
p1
.S'1283594310897836032,196,24,151'
p1
.S'1292951442977611776,195,29,86'
p1
.S'1283597858729320448,184,256,93'
p1
.S'1292980300724551680,191,48,19'
p1
.S'1292999682146078720,97,0,4'
p1
.S'1283628453660405760,185,6,36'
p1
.S'1293005309597851648,145,20,30'
p1
.S'1293024709654790144,189,191,269'
p1
.S'1283576274333646848,190,119,21'
p1
.S'1292971387174170624,189,255,283'
p1
.S'1283516869684473856,170,304,245'
p1
.S'1293017497037148160,193,10,56'
p1
.S'1283518396880842752,195,11,112'
p1
.S'1292938587310084096,195,24,0'
p1
.S'1283614924949893120,195,126,169'
p1
.S'1292992394412920832,195,97,50'
p1
.S'1283596727601020928,189,1,203'
p1
.S'1293033203573346304,161,28,43'
p1
.S'1292946589530345472,196,154,71'
p1
.S'1292997057287770112,174,132,76'
p1
.S'1292929369219923968,195,19,41'
p1
.S'1293008045835800576,195,36,82'
p1
.S'1292984433838071808,189,219,109'
p1
.S'1292988582595805184,129,93,13'
p1
.S'1293033683338788864,193,43,47'
p1
.S'1293009812979941376,196,2,11'
p1
.S'1293011316214255616,193,179,158'
p1
.S'1292998380045459456,190,6,288'
p1
.S'1292954812060942336,195,0,16'
p1
.S'1292912131947495424,180,42,132'
p1
.S'1292933943972216832,195,7,282'
p1
.S'1293022410861322240,196,11,11'
p1
.S'1293016852339240960,196,10,33'
p1
.S'1283633231136194560,158,83,323'
p1
.S'1283595763402334208,195,95,140'
p1
.S'1283620080978427904,196,6,75'
p1
.S'1283566491257974784,178,174,236'
p1
.S'1283600283552944128,183,40,345'
p1
.S'1283651464996487168,195,178,103'
p1
.S'1283618170934554624,194,47,153'
p1
.S'1283626040488534016,196,19,48'
p1
.S'1283589023369170944,193,194,224'
p1
.S'1283608483664719872,178,13,54'
p1
.S'1283588797153570816,189,108,109'
p1
.S'1283591670826475520,195,149,34'
p1
.S'1283662059883659264,195,0,20'
p1
.S'1283612481725911040,194,77,42'
p1
.S'1283625098535940096,131,0,69'
p1
.S'1283610254625701888,196,30,142'
p1
.S'1283623873078059008,193,13,193'
p1
.S'1283633856612311040,196,6,42'
p1
.S'1283639468657950720,194,0,6'
p1
.S'1283566151577845760,196,30,11'
p1
.S'1283617071015612416,194,42,26'
p1
.S'1283594310897836032,196,24,151'
p1
.S'1283597858729320448,184,256,93'
p1
.S'1283628453660405760,185,6,36'
p1
.S'1283576274333646848,190,119,21'
p1
.S'1283516869684473856,170,304,245'
p1
.S'1283518396880842752,195,11,112'
p1
.S'1283614924949893120,195,126,169'
p1
.S'1283596727601020928,189,1,203'
p1
.S'1283586104754855936,195,0,79'
p1
.S'1283601506670616576,195,136,15'
p1
.S'1283662059883659264,195,0,20'
p1
.S'1283566151577845760,196,30,11'
p1
.S'1283594310897836032,196,24,151'
p1
.S'1283597011132018688,184,132,59'
p1
.S'1283659789515759616,196,63,88'
p1
.S'1283603552417521664,194,70,145'
p1
.S'1283595706363502592,195,21,187'
p1
.S'1283613752163708928,188,68,19'
p1
.S'1283625901275713536,174,105,74'
p1
.S'1283598036287070208,196,139,14'
p1
.S'1283578956133945344,195,3,64'
p1
.S'1283601789342113792,194,193,144'
p1
.S'1283641034077044736,192,134,123'
p1
.S'1283600283552944128,183,40,345'
p1
.S'1283606588711927808,195,22,16'
p1
.S'1283622122581065728,195,1478,1497'
p1
.S'1283610254625701888,196,30,142'
p1
.S'1282292547053879296,186,1,12'
p1
.S'1282438706217070592,195,25,38'
p1
.S'1282404465169006592,182,25,71'
p1
.S'1282407580886626304,181,18,0'
p1
.S'1282426190757568512,194,107,110'
p1
.S'1282439007502303232,195,139,147'
p1
.S'1282430864458407936,179,45,123'
p1
.S'1282373670081343488,190,0,12'
p1
.S'1282416254342291456,191,106,124'
p1
.S'1282415720986755072,188,1,7'
p1
.S'1282439023537082368,190,6,14'
p1
.S'1282353026186784768,135,0,3'
p1
.S'1282453037293740032,141,3,135'
p1
.S'1282381790946160640,179,0,58'
p1
.S'1282412222840520704,151,114,172'
p1
.S'1282448683061096448,195,0,5'
p1
.S'1282401208023343104,194,95,234'
p1
.S'1282387688804716544,194,0,0'
p1
.S'1282424422515015680,195,13,8'
p1
.S'1282869410272862208,195,37,3'
p1
.S'1282879962130632704,195,184,197'
p1
.S'1282821828573859840,188,163,184'
p1
.S'1282915544495992832,192,81,78'
p1
.S'1282882412606849024,195,4,3'
p1
.S'1282887638667665408,176,9,47'
p1
.S'1282831849588445184,192,56,127'
p1
.S'1282864919951327232,193,55,136'
p1
.S'1282901091369074688,194,0,19'
p1
.S'1282930955694301184,116,2,3'
p1
.S'1282907700359503872,164,92,41'
p1
.S'1282955899912286208,195,40,256'
p1
.S'1289113714494185472,196,187,130'
p1
.S'1289109887846129664,183,24,23'
p1
.S'1289137204782084096,195,1,162'
p1
.S'1289260680737898496,194,15,24'
p1
.S'1289269387056074752,180,2,31'
p1
.S'1289143974350721024,193,0,24'
p1
.S'1289142950965764096,196,88,102'
p1
.S'1289250406845026304,194,0,18'
p1
.S'1289171056527101952,150,90,78'
p1
.S'1289263687470882816,191,187,165'
p1
.S'1289146799281659904,160,240,449'
p1
.S'1289278398946250752,181,28,53'
p1
.S'1289117230805946368,195,79,144'
p1
.S'1289266300186705920,190,0,50'
p1
.S'1289127137709846528,189,33,98'
p1
.S'1289248612991303680,99,0,14'
p1
.S'1289155352046526464,192,0,0'
p1
.S'1289171544521797632,195,25,95'
p1
.S'1289149276710400000,97,29,21'
p1
.S'1289150837666799616,178,0,2'
p1
.S'1289139669807902720,196,146,108'
p1
.S'1289275757901889536,196,10,73'
p1
.S'1289137824758927360,185,62,75'
p1
.S'1289106972230447104,58,102,254'
p1
.S'1289108588962463744,194,0,198'
p1
.S'1289276947985276928,180,38,79'
p1
.S'1289137359614595072,183,61,34'
p1
.S'1289136689948065792,195,2,28'
p1
.S'1289126022591229952,195,21,173'
p1
.S'1289142199581540352,59,105,265'
p1
.S'1289136711284166656,195,1,23'
p1
.S'1289138254616072192,187,89,18'
p1
.S'1289115074065272832,189,196,209'
p1
.S'1289250541884628992,196,28,31'
p1
.S'1289169751150673920,158,1,8'
p1
.S'1289103918030577664,192,181,115'
p1
.S'1289131111553093632,191,214,211'
p1
.S'1289139036673425408,197,106,227'
p1
.S'1289110706406707200,170,63,95'
p1
.S'1289130089514229760,180,0,99'
p1
.S'1289270052323241984,172,0,13'
p1
.S'1289109186600636416,195,222,383'
p1
.S'1289103630666207232,195,20,49'
p1
.S'1289251663932473344,195,36,36'
p1
.S'1289261927482220544,195,195,164'
p1
.S'1289248594528034816,195,195,203'
p1
.S'1289270733616361472,181,6,49'
p1
.S'1289259269426192384,195,100,173'
p1
.S'1289282453399568384,163,33,46'
p1
.S'1289130675244544000,196,2,1'
p1
.S'1289121579330367488,195,165,123'
p1
.S'1289133914505564160,194,132,78'
p1
.S'1289138659228303360,181,13,26'
p1
.S'1289135863779209216,195,84,128'
p1
.S'1289135820648906752,194,58,71'
p1
.S'1289122484515479552,195,46,130'
p1
.S'1289127972447920128,195,12,77'
p1
.S'1289129713767694336,196,74,123'
p1
.S'1289133715993325568,196,77,141'
p1
.S'1289237777946492928,182,140,174'
p1
.S'1289266134352363520,195,403,283'
p1
.S'1289118731875819520,183,19,338'
p1
.S'1289120435014905856,166,0,0'
p1
.S'1289243475413716992,196,2,1'
p1
.S'1289148661426806784,193,106,118'
p1
.S'1289168880018890752,195,223,143'
p1
.S'1289175562321076224,195,87,323'
p1
.S'1289269009560543232,196,34,47'
p1
.S'1289261770028056576,195,2,38'
p1
.S'1289217658289582080,194,0,9'
p1
.S'1289113750204739584,184,134,76'
p1
.S'1289269194508193792,185,8,3'
p1
.S'1289139019439083520,180,171,80'
p1
.S'1289257778451742720,195,1,0'
p1
.S'1289177648245178368,179,27,169'
p1
.S'1289110427653054464,194,1,39'
p1
.S'1289236526240350208,182,152,55'
p1
.S'1289238665041776640,163,6,17'
p1
.S'1289258467286216704,191,95,68'
p1
.S'1289270328329236480,196,0,3'
p1
.S'1289277730818818048,179,0,23'
p1
.S'1289108547476623360,180,66,47'
p1
.S'1289113714494185472,196,187,130'
p1
.S'1289277388366168064,196,55,82'
p1
.S'1289131257095131136,194,3,5'
p1
.S'1289109887846129664,183,24,23'
p1
.S'1289129045757702144,195,60,49'
p1
.S'1289137204782084096,195,1,162'
p1
.S'1289123629841715200,177,7,10'
p1
.S'1289200610033438720,195,29,30'
p1
.S'1289260680737898496,194,15,24'
p1
.S'1289269387056074752,180,2,31'
p1
.S'1289141862749433856,192,51,87'
p1
.S'1289143974350721024,193,0,24'
p1
.S'1289139049046732800,196,186,83'
p1
.S'1289142950965764096,196,88,102'
p1
.S'1289273050629558272,182,4,33'
p1
.S'1289250406845026304,194,0,18'
p1
.S'1289171056527101952,150,90,78'
p1
.S'1289263687470882816,191,187,165'
p1
.S'1289146799281659904,160,240,449'
p1
.S'1289278398946250752,181,28,53'
p1
.S'1289117230805946368,195,79,144'
p1
.S'1289266300186705920,190,0,50'
p1
.S'1289127137709846528,189,33,98'
p1
.S'1289248612991303680,99,0,14'
p1
.S'1289155352046526464,192,0,0'
p1
.S'1289171544521797632,195,25,95'
p1
.S'1289149276710400000,97,29,21'
p1
.S'1289150837666799616,178,0,2'
p1
.S'1289139669807902720,196,146,108'
p1
.S'1289275757901889536,196,10,73'
p1
.S'1289137824758927360,185,62,75'
p1
.S'1289106972230447104,58,102,254'
p1
.S'1289108588962463744,194,0,198'
p1
.S'1289276947985276928,180,38,79'
p1
.S'1289137359614595072,183,61,34'
p1
.S'1289136689948065792,195,2,28'
p1
.S'1289126022591229952,195,21,173'
p1
.S'1289142199581540352,59,105,265'
p1
.S'1289136711284166656,195,1,23'
p1
.S'1289138254616072192,187,89,18'
p1
.S'1289115074065272832,189,196,209'
p1
.S'1289250541884628992,196,28,31'
p1
.S'1289169751150673920,158,1,8'
p1
.S'1289103918030577664,192,181,115'
p1
.S'1289131111553093632,191,214,211'
p1
.S'1289139036673425408,197,106,227'
p1
.S'1289110706406707200,170,63,95'
p1
.S'1289130089514229760,180,0,99'
p1
.S'1289270052323241984,172,0,13'
p1
.S'1289109186600636416,195,222,383'
p1
.S'1289103630666207232,195,20,49'
p1
.S'1289251663932473344,195,36,36'
p1
.S'1289261927482220544,195,195,164'
p1
.S'1289248594528034816,195,195,203'
p1
.S'1289270733616361472,181,6,49'
p1
.S'1289259269426192384,195,100,173'
p1
.S'1289282453399568384,163,33,46'
p1
.S'1289130675244544000,196,2,1'
p1
.S'1289121579330367488,195,165,123'
p1
.S'1289133914505564160,194,132,78'
p1
.S'1289138659228303360,181,13,26'
p1
.S'1289135863779209216,195,84,128'
p1
.S'1289135820648906752,194,58,71'
p1
.S'1289122484515479552,195,46,130'
p1
.S'1289127972447920128,195,12,77'
p1
.S'1289129713767694336,196,74,123'
p1
.S'1289133715993325568,196,77,141'
p1
.S'1289237777946492928,182,140,174'
p1
.S'1289266134352363520,195,403,283'
p1
.S'1289118731875819520,183,19,338'
p1
.S'1289120435014905856,166,0,0'
p1
.S'1289243475413716992,196,2,1'
p1
.S'1289148661426806784,193,106,118'
p1
.S'1289168880018890752,195,223,143'
p1
.S'1289175562321076224,195,87,323'
p1
.S'1289269009560543232,196,34,47'
p1
.S'1289261770028056576,195,2,38'
p1
.S'1289217658289582080,194,0,9'
p1
.S'1289113750204739584,184,134,76'
p1
.S'1289269194508193792,185,8,3'
p1
.S'1289139019439083520,180,171,80'
p1
.S'1289257778451742720,195,1,0'
p1
.S'1289177648245178368,179,27,169'
p1
.S'1293076778260238336,130,1,0'
p1
.S'1289110427653054464,194,1,39'
p1
.S'1293045964353241088,194,0,12'
p1
.S'1289236526240350208,182,152,55'
p1
.S'1293111363165900800,195,104,13'
p1
.S'1292957948968116224,151,158,150'
p1
.S'1289238665041776640,163,6,17'
p1
.S'1289258467286216704,191,95,68'
p1
.S'1293098061442277376,196,6,16'
p1
.S'1289270328329236480,196,0,3'
p1
.S'1292986282045489152,195,7,32'
p1
.S'1289277730818818048,179,0,23'
p1
.S'1289108547476623360,180,66,47'
p1
.S'1292979475860090880,180,24,1'
p1
.S'1289277388366168064,196,55,82'
p1
.S'1293023186883178496,192,0,2'
p1
.S'1289131257095131136,194,3,5'
p1
.S'1289129045757702144,195,60,49'
p1
.S'1293011125897940992,194,16,23'
p1
.S'1289123629841715200,177,7,10'
p1
.S'1293015910080237568,184,2,7'
p1
.S'1289200610033438720,195,29,30'
p1
.S'1292961463249612800,191,5,43'
p1
.S'1289141862749433856,192,51,87'
p1
.S'1293099839332184064,194,0,0'
p1
.S'1289139049046732800,196,186,83'
p1
.S'1293010598178729984,193,8,51'
p1
.S'1289273050629558272,182,4,33'
p1
.S'1293009360863313920,196,245,107'
p1
.S'1293022410861322240,196,11,11'
p1
.S'1293098198411448320,195,147,108'
p1
.S'1293090345843912704,151,272,361'
p1
.S'1293076590942699520,179,7,14'
p1
.S'1293011316214255616,193,179,158'
p1
.S'1293016906298744832,190,99,67'
p1
.S'1293059781363687424,195,23,38'
p1
.S'1293121029388050432,141,7,30'
p1
.S'1292970251893784576,127,16,14'
p1
.S'1293013830158413824,196,9,213'
p1
.S'1293058501241126912,196,2,123'
p1
.S'1293076070538608640,192,0,20'
p1
.S'1293031165154217984,195,59,176'
p1
.S'1293007645019914240,195,5,51'
p1
.S'1293083886280175616,195,15,205'
p1
.S'1293097694319054848,196,76,101'
p1
.S'1293109874578087936,187,56,50'
p1
.S'1292988582595805184,129,93,13'
p1
.S'1292985844759953408,195,65,77'
p1
.S'1293053238601764864,196,72,382'
p1
.S'1292984433838071808,189,219,109'
p1
.S'1292998380045459456,190,6,288'
p1
.S'1293057097894125568,194,6,150'
p1
.S'1293051882621005824,182,163,140'
p1
.S'1292982014194118656,195,16,43'
p1
.S'1293051503174889472,195,207,161'
p1
.S'1293040077882179584,195,3,72'
p1
.S'1293016852339240960,196,10,33'
p1
.S'1293067698959507456,195,64,17'
p1
.S'1293034122800963584,191,8,31'
p1
.S'1293014886187991040,196,25,88'
p1
.S'1293011393620111360,196,81,124'
p1
.S'1293009812979941376,196,2,11'
p1
.S'1293031862738042880,194,1,17'
p1
.S'1293086416234217472,181,5,175'
p1
.S'1293010770208391168,196,73,110'
p1
.S'1292984080106934272,192,102,127'
p1
.S'1293017497037148160,193,10,56'
p1
.S'1292980625800101888,194,486,647'
p1
.S'1293012004126470144,194,226,115'
p1
.S'1293110802660098048,195,0,153'
p1
.S'1293006132293603328,181,137,86'
p1
.S'1293078279309623296,172,16,93'
p1
.S'1293053324437942272,181,122,181'
p1
.S'1292987142100099072,196,105,109'
p1
.S'1293048182858997760,196,140,19'
p1
.S'1293076778260238336,130,1,0'
p1
.S'1293091834771685376,194,5,139'
p1
.S'1293045964353241088,194,0,12'
p1
.S'1293006062366101504,139,62,105'
p1
.S'1293111363165900800,195,104,13'
p1
.S'1293086062285045760,194,0,15'
p1
.S'1292957948968116224,151,158,150'
p1
.S'1293131355445772288,177,66,74'
p1
.S'1293098061442277376,196,6,16'
p1
.S'1293029986017873920,196,41,13'
p1
.S'1292986282045489152,195,7,32'
p1
.S'1293030299059539968,194,194,117'
p1
.S'1292979475860090880,180,24,1'
p1
.S'1293067227121471488,195,1,0'
p1
.S'1293023186883178496,192,0,2'
p1
.S'1293133434965127168,194,140,110'
p1
.S'1292995965212889088,161,99,73'
p1
.S'1293011125897940992,194,16,23'
p1
.S'1293015910080237568,184,2,7'
p1
.S'1292969177266929664,176,45,4'
p1
.S'1292961463249612800,191,5,43'
p1
.S'1293073162904420352,196,110,152'
p1
.S'1293099839332184064,194,0,0'
p1
.S'1292987661933522944,196,91,165'
p1
.S'1293010598178729984,193,8,51'
p1
.S'1293026742495277056,196,20,33'
p1
.S'1293009360863313920,196,245,107'
p1
.S'1293061694310244352,176,143,128'
p1
.S'1293022410861322240,196,11,11'
p1
.S'1292997057287770112,174,132,76'
p1
.S'1293105283496931328,196,10,25'
p1
.S'1293098198411448320,195,147,108'
p1
.S'1293011962216833024,196,188,181'
p1
.S'1293090345843912704,151,272,361'
p1
.S'1293058164224618496,195,4,129'
p1
.S'1293076590942699520,179,7,14'
p1
.S'1292984787992502272,191,22,52'
p1
.S'1293011316214255616,193,179,158'
p1
.S'1293002422020694016,196,75,137'
p1
.S'1293016906298744832,190,99,67'
p1
.S'1293037151243694080,181,13,48'
p1
.S'1293059781363687424,195,23,38'
p1
.S'1292987373864800256,163,5,52'
p1
.S'1293121029388050432,141,7,30'
p1
.S'1292970251893784576,127,16,14'
p1
.S'1293002036392194048,196,14,111'
p1
.S'1293011217597992960,195,42,39'
p1
.S'1293013830158413824,196,9,213'
p1
.S'1293003342750294016,185,47,24'
p1
.S'1293058501241126912,196,2,123'
p1
.S'1292981716046503936,191,149,164'
p1
.S'1293076070538608640,192,0,20'
p1
.S'1293005309597851648,145,20,30'
p1
.S'1293054262536024064,178,93,47'
p1
.S'1293031165154217984,195,59,176'
p1
.S'1292992394412920832,195,97,50'
p1
.S'1293007645019914240,195,5,51'
p1
.S'1292971387174170624,189,255,283'
p1
.S'1293083886280175616,195,15,205'
p1
.S'1293097694319054848,196,76,101'
p1
.S'1293062281626038272,192,21,7'
p1
.S'1293109874578087936,187,56,50'
p1
.S'1293052196761559040,195,31,83'
p1
.S'1292988582595805184,129,93,13'
p1
.S'1293016382786740224,196,0,65'
p1
.S'1292985844759953408,195,65,77'
p1
.S'1292972692261490688,182,98,142'
p1
.S'1293053238601764864,196,72,382'
p1
.S'1292984433838071808,189,219,109'
p1
.S'1293014845150601216,193,89,70'
p1
.S'1292998380045459456,190,6,288'
p1
.S'1293008045835800576,195,36,82'
p1
.S'1293057097894125568,194,6,150'
p1
.S'1293051882621005824,182,163,140'
p1
.S'1292982014194118656,195,16,43'
p1
.S'1293051503174889472,195,207,161'
p1
.S'1293040077882179584,195,3,72'
p1
.S'1293016852339240960,196,10,33'
p1
.S'1293067698959507456,195,64,17'
p1
.S'1293034122800963584,191,8,31'
p1
.S'1293014886187991040,196,25,88'
p1
.S'1293011393620111360,196,81,124'
p1
.S'1283774260271620096,156,92,108'
p1
.S'1283839263959613440,195,1,0'
p1
.S'1293009812979941376,196,2,11'
p1
.S'1283774181003153408,196,37,81'
p1
.S'1293031862738042880,194,1,17'
p1
.S'1283826521509195776,159,9,56'
p1
.S'1293086416234217472,181,5,175'
p1
.S'1283696495208087552,118,9,26'
p1
.S'1283688074890940416,195,42,194'
p1
.S'1293010770208391168,196,73,110'
p1
.S'1283703570906431488,194,60,107'
p1
.S'1292984080106934272,192,102,127'
p1
.S'1283699670589550592,181,125,186'
p1
.S'1293017497037148160,193,10,56'
p1
.S'1283861163091931136,152,105,120'
p1
.S'1292980625800101888,194,486,647'
p1
.S'1283684460101066752,196,5,17'
p1
.S'1293012004126470144,194,226,115'
p1
.S'1283810851199537152,196,0,1'
p1
.S'1293110802660098048,195,0,153'
p1
.S'1283832000973058048,195,159,197'
p1
.S'1293006132293603328,181,137,86'
p1
.S'1283854202196099072,180,20,44'
p1
.S'1293078279309623296,172,16,93'
p1
.S'1283682101585498112,193,5,34'
p1
.S'1293053324437942272,181,122,181'
p1
.S'1283696143573872640,194,6,40'
p1
.S'1292987142100099072,196,105,109'
p1
.S'1283690365630730240,195,35,1'
p1
.S'1293048182858997760,196,140,19'
p1
.S'1293091834771685376,194,5,139'
p1
.S'1283689596852793344,195,0,317'
p1
.S'1293006062366101504,139,62,105'
p1
.S'1283832895424892928,196,3,4'
p1
.S'1293086062285045760,194,0,15'
p1
.S'1293131355445772288,177,66,74'
p1
.S'1283688592606228480,194,46,118'
p1
.S'1283816408576585728,195,29,49'
p1
.S'1293029986017873920,196,41,13'
p1
.S'1293030299059539968,194,194,117'
p1
.S'1283761850806665216,196,60,61'
p1
.S'1293067227121471488,195,1,0'
p1
.S'1283848644235558912,160,0,38'
p1
.S'1283841112062480384,195,7,253'
p1
.S'1293133434965127168,194,140,110'
p1
.S'1292995965212889088,161,99,73'
p1
.S'1283805919947980800,193,13,179'
p1
.S'1292969177266929664,176,45,4'
p1
.S'1283693988704309248,196,6,12'
p1
.S'1283841854198431744,158,8,10'
p1
.S'1293073162904420352,196,110,152'
p1
.S'1283701369882185728,196,45,35'
p1
.S'1292987661933522944,196,91,165'
p1
.S'1283686424331841536,159,13,18'
p1
.S'1283736234929643520,196,2,67'
p1
.S'1293026742495277056,196,20,33'
p1
.S'1283819349886611456,181,0,25'
p1
.S'1293061694310244352,176,143,128'
p1
.S'1283685913700044800,170,239,182'
p1
.S'1292997057287770112,174,132,76'
p1
.S'1283725370772156416,193,1,9'
p1
.S'1293105283496931328,196,10,25'
p1
.S'1283821162220097536,196,104,85'
p1
.S'1283843363996848128,172,0,4'
p1
.S'1293011962216833024,196,188,181'
p1
.S'1283705426587889664,133,87,124'
p1
.S'1293058164224618496,195,4,129'
p1
.S'1292984787992502272,191,22,52'
p1
.S'1283787553484820480,195,39,197'
p1
.S'1283827404200189952,163,13,64'
p1
.S'1283798155087241216,183,7,30'
p1
.S'1293002422020694016,196,75,137'
p1
.S'1283850313681584128,195,30,2'
p1
.S'1293037151243694080,181,13,48'
p1
.S'1283851181281988608,183,22,161'
p1
.S'1292987373864800256,163,5,52'
p1
.S'1283817744814796800,195,1,18'
p1
.S'1293002036392194048,196,14,111'
p1
.S'1283702116707864576,196,0,122'
p1
.S'1283858192018960384,92,145,178'
p1
.S'1293011217597992960,195,42,39'
p1
.S'1283856886248239104,189,42,53'
p1
.S'1293003342750294016,185,47,24'
p1
.S'1292981716046503936,191,149,164'
p1
.S'1283688061070712832,170,115,154'
p1
.S'1293005309597851648,145,20,30'
p1
.S'1293054262536024064,178,93,47'
p1
.S'1283812083464593408,195,16,129'
p1
.S'1283701487163387904,194,0,47'
p1
.S'1292992394412920832,195,97,50'
p1
.S'1283816990775312384,195,9,18'
p1
.S'1292971387174170624,189,255,283'
p1
.S'1283774260271620096,156,92,108'
p1
.S'1283685981740503040,196,57,13'
p1
.S'1283839263959613440,195,1,0'
p1
.S'1293062281626038272,192,21,7'
p1
.S'1283685703888596992,190,24,51'
p1
.S'1283774181003153408,196,37,81'
p1
.S'1293052196761559040,195,31,83'
p1
.S'1283826521509195776,159,9,56'
p1
.S'1283830479825063936,196,5,1'
p1
.S'1283696495208087552,118,9,26'
p1
.S'1283795598877294592,180,195,211'
p1
.S'1293016382786740224,196,0,65'
p1
.S'1283688074890940416,195,42,194'
p1
.S'1283805413954969600,195,105,106'
p1
.S'1292972692261490688,182,98,142'
p1
.S'1283703570906431488,194,60,107'
p1
.S'1283805239212167168,194,26,6'
p1
.S'1293014845150601216,193,89,70'
p1
.S'1283699670589550592,181,125,186'
p1
.S'1283844643486134272,195,15,298'
p1
.S'1293008045835800576,195,36,82'
p1
.S'1283841889900109824,192,5,5'
p1
.S'1283861163091931136,152,105,120'
p1
.S'1283825358856413184,193,92,113'
p1
.S'1283684460101066752,196,5,17'
p1
.S'1283859764484710400,119,119,119'
p1
.S'1283810851199537152,196,0,1'
p1
.S'1283805677231534080,195,12,58'
p1
.S'1283832000973058048,195,159,197'
p1
.S'1283860181910171648,196,1,41'
p1
.S'1283854202196099072,180,20,44'
p1
.S'1283692783911743488,164,0,32'
p1
.S'1283682101585498112,193,5,34'
p1
.S'1283688304751054848,192,0,7'
p1
.S'1283696143573872640,194,6,40'
p1
.S'1283821926070255616,192,181,166'
p1
.S'1283690365630730240,195,35,1'
p1
.S'1283814635602059264,192,212,120'
p1
.S'1283828156708667392,170,98,16'
p1
.S'1283689596852793344,195,0,317'
p1
.S'1283832895424892928,196,3,4'
p1
.S'1283694421531348992,195,6,30'
p1
.S'1283831420452257792,196,8,19'
p1
.S'1283688592606228480,194,46,118'
p1
.S'1283824496788611072,196,28,66'
p1
.S'1283816408576585728,195,29,49'
p1
.S'1283808995496579072,193,33,66'
p1
.S'1283761850806665216,196,60,61'
p1
.S'1283814495340421120,193,70,70'
p1
.S'1283848644235558912,160,0,38'
p1
.S'1283862843451924480,192,7,9'
p1
.S'1283841112062480384,195,7,253'
p1
.S'1283682568533168128,195,9,9'
p1
.S'1283805919947980800,193,13,179'
p1
.S'1283806076387078144,187,37,186'
p1
.S'1283693988704309248,196,6,12'
p1
.S'1283841854198431744,158,8,10'
p1
.S'1283835085753397248,184,3,5'
p1
.S'1283792729377800192,195,359,76'
p1
.S'1283701369882185728,196,45,35'
p1
.S'1283686424331841536,159,13,18'
p1
.S'1283708661063364608,195,0,10'
p1
.S'1283689505139953664,60,32,3'
p1
.S'1283736234929643520,196,2,67'
p1
.S'1283740144553377792,158,4,38'
p1
.S'1283819349886611456,181,0,25'
p1
.S'1283805414785495040,186,141,126'
p1
.S'1283685913700044800,170,239,182'
p1
.S'1283725370772156416,193,1,9'
p1
.S'1283847006502703104,195,11,46'
p1
.S'1283821162220097536,196,104,85'
p1
.S'1283843363996848128,172,0,4'
p1
.S'1283845321574776832,195,59,41'
p1
.S'1283705426587889664,133,87,124'
p1
.S'1283690544832884736,196,92,86'
p1
.S'1283787553484820480,195,39,197'
p1
.S'1283816037191929856,187,4,3'
p1
.S'1283827404200189952,163,13,64'
p1
.S'1283852642556289024,194,13,80'
p1
.S'1283798155087241216,183,7,30'
p1
.S'1283850313681584128,195,30,2'
p1
.S'1283685921858211840,157,1,22'
p1
.S'1283856821085765632,171,0,0'
p1
.S'1283851181281988608,183,22,161'
p1
.S'1283824288176513024,195,1,10'
p1
.S'1283817744814796800,195,1,18'
p1
.S'1283847961596067840,156,2,49'
p1
.S'1283702116707864576,196,0,122'
p1
.S'1283838093090283520,177,2,48'
p1
.S'1283858192018960384,92,145,178'
p1
.S'1283774260271620096,156,92,108'
p1
.S'1283695355162656768,196,110,177'
p1
.S'1283856886248239104,189,42,53'
p1
.S'1283839263959613440,195,1,0'
p1
.S'1283774181003153408,196,37,81'
p1
.S'1283711658132672512,173,3,3'
p1
.S'1283688061070712832,170,115,154'
p1
.S'1283826521509195776,159,9,56'
p1
.S'1283729491210153984,195,20,139'
p1
.S'1283812083464593408,195,16,129'
p1
.S'1283696495208087552,118,9,26'
p1
.S'1283688074890940416,195,42,194'
p1
.S'1283701487163387904,194,0,47'
p1
.S'1283816990775312384,195,9,18'
p1
.S'1283703570906431488,194,60,107'
p1
.S'1283685981740503040,196,57,13'
p1
.S'1283699670589550592,181,125,186'
p1
.S'1283685703888596992,190,24,51'
p1
.S'1283861163091931136,152,105,120'
p1
.S'1283830479825063936,196,5,1'
p1
.S'1283795598877294592,180,195,211'
p1
.S'1283684460101066752,196,5,17'
p1
.S'1283805413954969600,195,105,106'
p1
.S'1283810851199537152,196,0,1'
p1
.S'1283805239212167168,194,26,6'
p1
.S'1283832000973058048,195,159,197'
p1
.S'1283854202196099072,180,20,44'
p1
.S'1283844643486134272,195,15,298'
p1
.S'1283682101585498112,193,5,34'
p1
.S'1283841889900109824,192,5,5'
p1
.S'1283696143573872640,194,6,40'
p1
.S'1283825358856413184,193,92,113'
p1
.S'1283859764484710400,119,119,119'
p1
.S'1283690365630730240,195,35,1'
p1
.S'1283805677231534080,195,12,58'
p1
.S'1283689596852793344,195,0,317'
p1
.S'1283860181910171648,196,1,41'
p1
.S'1283832895424892928,196,3,4'
p1
.S'1283692783911743488,164,0,32'
p1
.S'1283688592606228480,194,46,118'
p1
.S'1283688304751054848,192,0,7'
p1
.S'1283816408576585728,195,29,49'
p1
.S'1283821926070255616,192,181,166'
p1
.S'1283814635602059264,192,212,120'
p1
.S'1283761850806665216,196,60,61'
p1
.S'1283828156708667392,170,98,16'
p1
.S'1283848644235558912,160,0,38'
p1
.S'1283694421531348992,195,6,30'
p1
.S'1283841112062480384,195,7,253'
p1
.S'1283831420452257792,196,8,19'
p1
.S'1283805919947980800,193,13,179'
p1
.S'1283824496788611072,196,28,66'
p1
.S'1283693988704309248,196,6,12'
p1
.S'1283808995496579072,193,33,66'
p1
.S'1283841854198431744,158,8,10'
p1
.S'1283814495340421120,193,70,70'
p1
.S'1283701369882185728,196,45,35'
p1
.S'1283686424331841536,159,13,18'
p1
.S'1283862843451924480,192,7,9'
p1
.S'1283736234929643520,196,2,67'
p1
.S'1283682568533168128,195,9,9'
p1
.S'1283819349886611456,181,0,25'
p1
.S'1283806076387078144,187,37,186'
p1
.S'1283685913700044800,170,239,182'
p1
.S'1283835085753397248,184,3,5'
p1
.S'1283725370772156416,193,1,9'
p1
.S'1283821162220097536,196,104,85'
p1
.S'1283792729377800192,195,359,76'
p1
.S'1283843363996848128,172,0,4'
p1
.S'1283708661063364608,195,0,10'
p1
.S'1283705426587889664,133,87,124'
p1
.S'1283689505139953664,60,32,3'
p1
.S'1283787553484820480,195,39,197'
p1
.S'1283740144553377792,158,4,38'
p1
.S'1283827404200189952,163,13,64'
p1
.S'1283798155087241216,183,7,30'
p1
.S'1283805414785495040,186,141,126'
p1
.S'1283850313681584128,195,30,2'
p1
.S'1283847006502703104,195,11,46'
p1
.S'1283851181281988608,183,22,161'
p1
.S'1283845321574776832,195,59,41'
p1
.S'1283817744814796800,195,1,18'
p1
.S'1283702116707864576,196,0,122'
p1
.S'1283690544832884736,196,92,86'
p1
.S'1283858192018960384,92,145,178'
p1
.S'1283816037191929856,187,4,3'
p1
.S'1283856886248239104,189,42,53'
p1
.S'1283852642556289024,194,13,80'
p1
.S'1283688061070712832,170,115,154'
p1
.S'1283685921858211840,157,1,22'
p1
.S'1283856821085765632,171,0,0'
p1
.S'1283812083464593408,195,16,129'
p1
.S'1283824288176513024,195,1,10'
p1
.S'1283701487163387904,194,0,47'
p1
.S'1289399740169326592,196,0,63'
p1
.S'1283847961596067840,156,2,49'
p1
.S'1283816990775312384,195,9,18'
p1
.S'1289410013940883456,195,11,80'
p1
.S'1283838093090283520,177,2,48'
p1
.S'1283685981740503040,196,57,13'
p1
.S'1289389916337434624,188,120,162'
p1
.S'1283695355162656768,196,110,177'
p1
.S'1283685703888596992,190,24,51'
p1
.S'1283711658132672512,173,3,3'
p1
.S'1289401424425447424,195,20,45'
p1
.S'1283830479825063936,196,5,1'
p1
.S'1283729491210153984,195,20,139'
p1
.S'1289406537466843136,161,3,4'
p1
.S'1283795598877294592,180,195,211'
p1
.S'1283805413954969600,195,105,106'
p1
.S'1289426654174875648,194,126,199'
p1
.S'1283805239212167168,194,26,6'
p1
.S'1289413371824930816,196,9,12'
p1
.S'1283844643486134272,195,15,298'
p1
.S'1289361772284882944,185,53,16'
p1
.S'1283841889900109824,192,5,5'
p1
.S'1289414278784634880,196,5,32'
p1
.S'1283825358856413184,193,92,113'
p1
.S'1283859764484710400,119,119,119'
p1
.S'1289395934949945344,196,133,170'
p1
.S'1283805677231534080,195,12,58'
p1
.S'1289418976757170176,157,3,6'
p1
.S'1289452043710660608,194,0,193'
p1
.S'1283860181910171648,196,1,41'
p1
.S'1283692783911743488,164,0,32'
p1
.S'1289407978298073088,196,167,6'
p1
.S'1283688304751054848,192,0,7'
p1
.S'1289401592273313792,195,16,38'
p1
.S'1283821926070255616,192,181,166'
p1
.S'1289412439380840448,186,52,52'
p1
.S'1283814635602059264,192,212,120'
p1
.S'1289435392021602304,196,3,82'
p1
.S'1283828156708667392,170,98,16'
p1
.S'1289386665139703808,196,152,160'
p1
.S'1283694421531348992,195,6,30'
p1
.S'1289392106422620160,196,4,28'
p1
.S'1283831420452257792,196,8,19'
p1
.S'1289408711202349056,196,79,61'
p1
.S'1283824496788611072,196,28,66'
p1
.S'1283808995496579072,193,33,66'
p1
.S'1289369657983537152,196,5,49'
p1
.S'1283814495340421120,193,70,70'
p1
.S'1289338330504699904,195,6,12'
p1
.S'1283862843451924480,192,7,9'
p1
.S'1289394129520025600,178,4,180'
p1
.S'1283682568533168128,195,9,9'
p1
.S'1289413355475472384,195,91,75'
p1
.S'1283806076387078144,187,37,186'
p1
.S'1289389433598218240,195,68,6'
p1
.S'1283835085753397248,184,3,5'
p1
.S'1289400119825195008,171,37,8'
p1
.S'1283792729377800192,195,359,76'
p1
.S'1289458102579732480,196,31,211'
p1
.S'1283708661063364608,195,0,10'
p1
.S'1283689505139953664,60,32,3'
p1
.S'1289383564668014592,195,10,13'
p1
.S'1283740144553377792,158,4,38'
p1
.S'1289382580566855680,194,242,235'
p1
.S'1283805414785495040,186,141,126'
p1
.S'1289363929197576192,196,0,130'
p1
.S'1283847006502703104,195,11,46'
p1
.S'1289394453333016576,195,2,73'
p1
.S'1289383130519752704,194,0,141'
p1
.S'1283845321574776832,195,59,41'
p1
.S'1289369411874394112,195,172,101'
p1
.S'1283690544832884736,196,92,86'
p1
.S'1283816037191929856,187,4,3'
p1
.S'1289398528619241472,189,16,55'
p1
.S'1283852642556289024,194,13,80'
p1
.S'1289374007057117184,195,207,33'
p1
.S'1283685921858211840,157,1,22'
p1
.S'1283856821085765632,171,0,0'
p1
.S'1289419459232468992,195,56,7'
p1
.S'1283824288176513024,195,1,10'
p1
.S'1283847961596067840,156,2,49'
p1
.S'1289395473492647936,196,94,74'
p1
.S'1283838093090283520,177,2,48'
p1
.S'1289399740169326592,196,0,63'
p1
.S'1289435316608004096,195,40,64'
p1
.S'1283695355162656768,196,110,177'
p1
.S'1289410013940883456,195,11,80'
p1
.S'1289383643886018560,190,1,5'
p1
.S'1283711658132672512,173,3,3'
p1
.S'1289394430952026112,195,44,57'
p1
.S'1289389916337434624,188,120,162'
p1
.S'1283729491210153984,195,20,139'
p1
.S'1289407302843187200,195,40,27'
p1
.S'1289401424425447424,195,20,45'
p1
.S'1289406537466843136,161,3,4'
p1
.S'1289397833748942848,195,4,19'
p1
.S'1289426654174875648,194,126,199'
p1
.S'1289390220587991040,187,217,239'
p1
.S'1289413371824930816,196,9,12'
p1
.S'1289384272935186432,187,139,109'
p1
.S'1289361772284882944,185,53,16'
p1
.S'1289387431497445376,190,9,54'
p1
.S'1289414278784634880,196,5,32'
p1
.S'1289379220099063808,194,65,90'
p1
.S'1289395934949945344,196,133,170'
p1
.S'1289397361306734592,196,89,33'
p1
.S'1289418976757170176,157,3,6'
p1
.S'1289393672806645760,188,25,91'
p1
.S'1289452043710660608,194,0,193'
p1
.S'1289425488284188672,195,160,186'
p1
.S'1289407978298073088,196,167,6'
p1
.S'1289389113082003456,195,87,14'
p1
.S'1289401592273313792,195,16,38'
p1
.S'1289391777702649856,195,164,179'
p1
.S'1289412439380840448,186,52,52'
p1
.S'1289419230911320064,188,71,113'
p1
.S'1289435392021602304,196,3,82'
p1
.S'1289399740169326592,196,0,63'
p1
.S'1289410013940883456,195,11,80'
p1
.S'1289389916337434624,188,120,162'
p1
.S'1289401424425447424,195,20,45'
p1
.S'1289406537466843136,161,3,4'
p1
.S'1289426654174875648,194,126,199'
p1
.S'1289413371824930816,196,9,12'
p1
.S'1289361772284882944,185,53,16'
p1
.S'1289414278784634880,196,5,32'
p1
.S'1289395934949945344,196,133,170'
p1
.S'1289418976757170176,157,3,6'
p1
.S'1289452043710660608,194,0,193'
p1
.S'1289407978298073088,196,167,6'
p1
.S'1289401592273313792,195,16,38'
p1
.S'1289412439380840448,186,52,52'
p1
.S'1289435392021602304,196,3,82'
p1
.S'1289386665139703808,196,152,160'
p1
.S'1289392106422620160,196,4,28'
p1
.S'1289408711202349056,196,79,61'
p1
.S'1289369657983537152,196,5,49'
p1
.S'1289338330504699904,195,6,12'
p1
.S'1289394129520025600,178,4,180'
p1
.S'1289413355475472384,195,91,75'
p1
.S'1289389433598218240,195,68,6'
p1
.S'1289400119825195008,171,37,8'
p1
.S'1289458102579732480,196,31,211'
p1
.S'1289383564668014592,195,10,13'
p1
.S'1289382580566855680,194,242,235'
p1
.S'1289363929197576192,196,0,130'
p1
.S'1289394453333016576,195,2,73'
p1
.S'1289383130519752704,194,0,141'
p1
.S'1289369411874394112,195,172,101'
p1
.S'1289398528619241472,189,16,55'
p1
.S'1289374007057117184,195,207,33'
p1
.S'1289419459232468992,195,56,7'
p1
.S'1289395473492647936,196,94,74'
p1
.S'1289435316608004096,195,40,64'
p1
.S'1289383643886018560,190,1,5'
p1
.S'1289394430952026112,195,44,57'
p1
.S'1289407302843187200,195,40,27'
p1
.S'1289397833748942848,195,4,19'
p1
.S'1289390220587991040,187,217,239'
p1
.S'1289384272935186432,187,139,109'
p1
.S'1289387431497445376,190,9,54'
p1
.S'1289379220099063808,194,65,90'
p1
.S'1289397361306734592,196,89,33'
p1
.S'1289393672806645760,188,25,91'
p1
.S'1289425488284188672,195,160,186'
p1
.S'1289389113082003456,195,87,14'
p1
.S'1289391777702649856,195,164,179'
p1
.S'1289419230911320064,188,71,113'
p1
.S'1289435826199130112,145,116,27'
p1
.S'1289468974542815232,196,150,36'
p1
.S'1289401829746167808,195,53,135'
p1
.S'1289378371343945728,194,0,61'
p1
.S'1289398742168055808,194,62,60'
p1
.S'1289427598039990272,195,7,63'
p1
.S'1289348393868918784,195,1,0'
p1
.S'1289419323177398272,196,110,156'
p1
.S'1289376509572063232,196,149,88'
p1
.S'1289451932875952128,196,3,13'
p1
.S'1289380681872457728,181,49,40'
p1
.S'1289393608738631680,184,4,16'
p1
.S'1289371622981128192,192,20,66'
p1
.S'1289345731043467264,196,85,120'
p1
.S'1289463797933047808,195,69,57'
p1
.S'1289405115266228224,195,31,31'
p1
.S'1289402911977574400,196,7,21'
p1
.S'1289364490278027264,175,3,16'
p1
.S'1289364277559738368,195,62,204'
p1
.S'1289403656504274944,195,36,107'
p1
.S'1289373311402450944,196,26,45'
p1
.S'1289409709195116544,194,0,1'
p1
.S'1289367161890091008,168,16,46'
p1
.S'1289376165324292096,193,0,14'
p1
.S'1289386901937205248,194,168,40'
p1
.S'1289368930456170496,181,85,93'
p1
.S'1289399740169326592,196,0,63'
p1
.S'1289410013940883456,195,11,80'
p1
.S'1289385015243046912,193,9,38'
p1
.S'1289391340517740544,196,7,26'
p1
.S'1289389916337434624,188,120,162'
p1
.S'1289381390496227328,171,30,49'
p1
.S'1289401424425447424,195,20,45'
p1
.S'1289389609889021952,196,84,186'
p1
.S'1289406537466843136,161,3,4'
p1
.S'1289412937357967360,196,44,99'
p1
.S'1289426654174875648,194,126,199'
p1
.S'1289406149262786560,195,37,28'
p1
.S'1289413371824930816,196,9,12'
p1
.S'1289367939455340544,196,80,157'
p1
.S'1289361772284882944,185,53,16'
p1
.S'1289389539399516160,172,5,88'
p1
.S'1289472688922005504,195,40,14'
p1
.S'1289414278784634880,196,5,32'
p1
.S'1289431987060400128,195,213,115'
p1
.S'1289395934949945344,196,133,170'
p1
.S'1289436970959138816,144,9,56'
p1
.S'1289418976757170176,157,3,6'
p1
.S'1289452043710660608,194,0,193'
p1
.S'1289475816950218752,196,149,41'
p1
.S'1289407978298073088,196,167,6'
p1
.S'1289401592273313792,195,16,38'
p1
.S'1289412439380840448,186,52,52'
p1
.S'1289435392021602304,196,3,82'
p1
.S'1289386665139703808,196,152,160'
p1
.S'1289392106422620160,196,4,28'
p1
.S'1289408711202349056,196,79,61'
p1
.S'1289369657983537152,196,5,49'
p1
.S'1289338330504699904,195,6,12'
p1
.S'1289394129520025600,178,4,180'
p1
.S'1289413355475472384,195,91,75'
p1
.S'1289389433598218240,195,68,6'
p1
.S'1289400119825195008,171,37,8'
p1
.S'1289458102579732480,196,31,211'
p1
.S'1289383564668014592,195,10,13'
p1
.S'1289382580566855680,194,242,235'
p1
.S'1289363929197576192,196,0,130'
p1
.S'1289394453333016576,195,2,73'
p1
.S'1289383130519752704,194,0,141'
p1
.S'1289369411874394112,195,172,101'
p1
.S'1289398528619241472,189,16,55'
p1
.S'1289374007057117184,195,207,33'
p1
.S'1289419459232468992,195,56,7'
p1
.S'1289395473492647936,196,94,74'
p1
.S'1289435316608004096,195,40,64'
p1
.S'1289383643886018560,190,1,5'
p1
.S'1289394430952026112,195,44,57'
p1
.S'1289407302843187200,195,40,27'
p1
.S'1289397833748942848,195,4,19'
p1
.S'1289390220587991040,187,217,239'
p1
.S'1289384272935186432,187,139,109'
p1
.S'1289387431497445376,190,9,54'
p1
.S'1289379220099063808,194,65,90'
p1
.S'1289397361306734592,196,89,33'
p1
.S'1289393672806645760,188,25,91'
p1
.S'1289425488284188672,195,160,186'
p1
.S'1289389113082003456,195,87,14'
p1
.S'1289391777702649856,195,164,179'
p1
.S'1289419230911320064,188,71,113'
p1
.S'1289435826199130112,145,116,27'
p1
.S'1289468974542815232,196,150,36'
p1
.S'1289401829746167808,195,53,135'
p1
.S'1289378371343945728,194,0,61'
p1
.S'1289398742168055808,194,62,60'
p1
.S'1289427598039990272,195,7,63'
p1
.S'1289348393868918784,195,1,0'
p1
.S'1289419323177398272,196,110,156'
p1
.S'1289376509572063232,196,149,88'
p1
.S'1289451932875952128,196,3,13'
p1
.S'1289380681872457728,181,49,40'
p1
.S'1289393608738631680,184,4,16'
p1
.S'1289371622981128192,192,20,66'
p1
.S'1289345731043467264,196,85,120'
p1
.S'1289463797933047808,195,69,57'
p1
.S'1289405115266228224,195,31,31'
p1
.S'1289402911977574400,196,7,21'
p1
.S'1283682568533168128,195,9,9'
p1
.S'1289364490278027264,175,3,16'
p1
.S'1283705426587889664,133,87,124'
p1
.S'1289364277559738368,195,62,204'
p1
.S'1283610578333650944,188,28,106'
p1
.S'1289403656504274944,195,36,107'
p1
.S'1283641034077044736,192,134,123'
p1
.S'1289373311402450944,196,26,45'
p1
.S'1283608232811773952,195,88,146'
p1
.S'1289409709195116544,194,0,1'
p1
.S'1289367161890091008,168,16,46'
p1
.S'1283608030243930112,195,111,181'
p1
.S'1289376165324292096,193,0,14'
p1
.S'1283598439707480064,196,19,6'
p1
.S'1289386901937205248,194,168,40'
p1
.S'1283628453660405760,185,6,36'
p1
.