S'1283608232811773952,195,156,88,146'
p1
.S'1283595706363502592,195,81,21,187'
p1
.S'1283598036287070208,196,144,139,14'
p1
.S'1283594310897836032,196,109,24,151'
p1
.S'1283616609428533248,203,176,131,316'
p1
.S'1283598811406999552,196,134,113,120'
p1
.S'1283572210170765312,195,106,0,106'
p1
.S'1283616099686133760,177,64,68,26'
p1
.S'1283603552417521664,194,129,70,145'
p1
.S'1283606724259069952,190,102,15,108'
p1
.S'1283586104754855936,195,61,0,79'
p1
.S'1283606588711927808,195,32,22,16'
p1
.S'1283600283552944128,183,165,40,345'
p1
.S'1282772732521697280,193,168,126,163'
p1
.S'1282782763539730432,193,39,17,29'
p1
.S'1282915035811303424,194,8,3,5'
p1
.S'1282906927109931008,137,137,227,188'
p1
.S'1282771464542158848,124,79,0,85'
p1
.S'1282941598019248128,195,0,0,0'
p1
.S'1282809679604535296,194,63,36,33'
p1
.S'1282858243844407296,179,73,2,73'
p1
.S'1282918428256227328,190,54,21,54'
p1
.S'1282919167687303168,192,160,157,89'
p1
.S'1282887638667665408,176,48,9,47'
p1
.S'1282875174098214912,195,97,67,59'
p1
.S'1282810244246253568,190,162,252,115'
p1
.S'1282927218489794560,194,5,0,5'
p1
.S'1282821828573859840,188,184,163,184'
p1
.S'1282831602615001088,196,93,48,111'
p1
.S'1282899490558861312,196,43,18,27'
p1
.S'1282854181669142528,179,130,206,133'
p1
.S'1282827087509880832,195,139,125,79'
p1
.S'1282906351194324992,195,55,51,8'
p1
.S'1282827425474121728,179,36,1,37'
p1
.S'1282882412606849024,195,7,4,3'
p1
.S'1283676300023844864,174,95,82,73'
p1
.S'1283665904768643072,195,91,22,134'
p1
.S'1283625839304589312,196,29,23,6'
p1
.S'1283688061070712832,170,158,115,154'
p1
.S'1283701487163387904,194,45,0,47'
p1
.S'1283649593862987776,186,49,28,49'
p1
.S'1283653245650477056,180,93,55,119'
p1
.S'1283708661063364608,195,10,0,10'
p1
.S'1283630682823897088,181,108,26,129'
p1
.S'1283648551305564160,192,48,54,72'
p1
.S'1283646987287371776,196,186,246,376'
p1
.S'1283690544832884736,196,109,92,86'
p1
.S'1283703431193907200,191,83,60,79'
p1
.S'1283628983359524864,196,177,148,175'
p1
.S'1283623873078059008,193,192,13,193'
p1
.S'1283639468657950720,194,6,0,6'
p1
.S'1283682568533168128,195,18,9,9'
p1
.S'1283634952658964480,181,112,96,106'
p1
.S'1283641871599542272,195,126,114,91'
p1
.S'1283659789515759616,196,121,63,88'
p1
.S'1283645005835501568,182,0,0,0'
p1
.S'1283774260271620096,156,78,92,108'
p1
.S'1283646778075672576,176,42,0,42'
p1
.S'1283658434809663488,194,21,13,14'
p1
.S'1283677006865272832,188,89,66,95'
p1
.S'1283649369370951680,195,161,55,152'
p1
.S'1283626040488534016,196,56,19,48'
p1
.S'1283648693190946816,131,7,3,4'
p1
.S'1283250234956369920,196,184,323,421'
p1
.S'1283283657439969280,194,63,9,60'
p1
.S'1283256620259971072,196,44,13,46'
p1
.S'1283204354648236032,195,171,20,165'
p1
.S'1283289910065139712,195,195,361,189'
p1
.S'1283223352140009472,195,67,24,49'
p1
.S'1283211441658826752,188,44,33,13'
p1
.S'1283245333950365696,196,13,1,12'
p1
.S'1283263437430214656,195,123,135,51'
p1
.S'1283191932218429440,157,6,2,4'
p1
.S'1283199714006872064,194,194,259,255'
p1
.S'1283237750791389184,195,92,81,42'
p1
.S'1283243997732687872,177,36,12,29'
p1
.S'1283215966385668096,177,118,1,117'
p1
.S'1283240728625598464,196,46,11,42'
p1
.S'1283247100939399168,172,41,40,11'
p1
.S'1283317455431012352,187,94,91,41'
p1
.S'1283203690320756736,178,122,36,109'
p1
.S'1283248878095130624,195,185,164,138'
p1
.S'1283218393918525440,189,48,41,11'
p1
.S'1283187718734143488,195,173,209,108'
p1
.S'1283228184867213312,195,38,12,35'
p1
.S'1283245965998280704,193,71,68,12'
p1
.S'1283277604203945984,196,184,191,100'
p1
.S'1283245164219518976,195,40,36,7'
p1
.S'1283254581425541120,195,70,37,54'
p1
.S'1283247569652387840,190,39,3,39'
p1
.S'1283216640423133184,191,145,116,86'
p1
.S'1283204354648236032,195,171,20,165'
p1
.S'1283218393918525440,189,48,41,11'
p1
.S'1283240970582196224,196,86,73,26'
p1
.S'1293667376109387776,195,194,193,68'
p1
.S'1293651264529629184,195,118,82,67'
p1
.S'1293657045110808576,195,17,0,20'
p1
.S'1293651941070905344,181,148,154,101'
p1
.S'1293632742235451392,185,30,1,29'
p1
.S'1293637481266606080,193,110,67,143'
p1
.S'1293594939871379456,195,33,1,35'
p1
.S'1293645686528684032,141,114,162,53'
p1
.S'1293637114696798208,195,93,52,83'
p1
.S'1293656052084191232,99,21,12,10'
p1
.S'1293639217104474112,189,97,0,99'
p1
.S'1293671016639635456,178,102,44,180'
p1
.S'1293661596555563008,158,127,182,146'
p1
.S'1293646237773737984,191,154,151,145'
p1
.S'1293664980394254336,195,119,2,160'
p1
.S'1293649080555364352,169,39,43,67'
p1
.S'1293642705037099008,195,16,0,16'
p1
.S'1293673597671448576,196,86,61,96'
p1
.S'1293670039593144320,195,13,0,18'
p1
.S'1293663168261963776,188,86,71,44'
p1
.S'1293506949270401025,196,28,18,11'
p1
.S'1293651438484041728,189,119,74,72'
p1
.S'1293650807631568896,194,80,2,83'
p1
.S'1293631475878678528,196,113,40,147'
p1
.S'1293650144998440960,181,48,42,38'
p1
.S'1293516246918291456,195,31,1,37'
p1
.S'1293666634296639488,81,9,0,9'
p1
.S'1293648730377154560,192,6,0,6'
p1
.S'1293641445634658304,195,3,1,2'
p1
.S'1293527154843430912,195,19,12,7'
p1
.S'1293657366532947968,195,10,2,8'
p1
.S'1293636193833119744,170,16,8,9'
p1
.S'1293626532790943744,195,129,71,151'
p1
.S'1293674538881687552,194,166,141,216'
p1
.S'1293665830214737920,194,179,266,202'
p1
.S'1293553157443637248,196,135,143,0'
p1
.S'1293655830486753280,195,32,10,28'
p1
.S'1293621194423468032,186,26,2,24'
p1
.S'1293625710577168384,195,24,11,13'
p1
.S'1293627638556078080,195,142,140,32'
p1
.S'1293639233441062912,195,25,2,24'
p1
.S'1293658657690656768,196,196,197,138'
p1
.S'1293672129191182337,195,69,28,91'
p1
.S'1293645880699875328,174,164,184,894'
p1
.S'1293660020592009216,190,105,81,39'
p1
.S'1293659146461536256,196,184,186,215'
p1
.S'1293656011001171968,150,117,21,101'
p1
.S'1293535604407427072,184,171,151,181'
p1
.S'1293504292644605952,196,196,90,215'
p1
.S'1293499472730648576,196,112,38,157'
p1
.S'1293514280813371392,195,50,10,48'
p1
.S'1293665611792183296,196,137,45,143'
p1
.S'1293609165763371008,195,28,14,15'
p1
.S'1293668505237254144,195,150,53,165'
p1
.S'1293645149083226112,189,122,56,158'
p1
.S'1293662691013058560,131,40,0,44'
p1
.S'1293667515276361728,193,37,3,39'
p1
.S'1293668168551772160,192,77,49,68'
p1
.S'1293597895198969856,195,26,0,29'
p1
.S'1293666801422893056,128,59,55,12'
p1
.S'1293646920958808064,194,63,4,63'
p1
.S'1293629411387715584,195,120,132,132'
p1
.S'1293642387440443392,186,1,0,1'
p1
.S'1293568882455490560,188,100,100,8'
p1
.S'1293630612338593792,195,162,149,515'
p1
.S'1293644665383436288,174,104,94,95'
p1
.S'1293653439364349952,193,77,0,77'
p1
.S'1293648386838405120,194,20,0,20'
p1
.S'1293676749510561793,195,50,2,54'
p1
.S'1293611012314296320,195,60,25,59'
p1
.S'1293614086919192576,121,0,0,0'
p1
.S'1293644015526371328,184,0,0,0'
p1
.S'1293672392392310784,192,130,67,168'
p1
.S'1293622423345905664,189,73,44,45'
p1
.S'1293672665160523776,196,74,63,51'
p1
.S'1293554892576792576,195,150,191,36'
p1
.S'1293642450568658944,195,193,43,324'
p1
.S'1293666598837772288,157,16,0,17'
p1
.S'1293672935324016640,133,74,51,42'
p1
.S'1282508294237339648,194,6,0,6'
p1
.S'1282499573650227200,195,81,2,101'
p1
.S'1282532160074919936,195,85,4,85'
p1
.S'1282511620253339648,195,101,40,108'
p1
.S'1282484959118094336,196,162,108,210'
p1
.S'1282537001102745600,193,138,131,90'
p1
.S'1282433335825686528,195,162,129,150'
p1
.S'1282533393388974080,194,134,128,115'
p1
.S'1282489382939000832,191,57,5,61'
p1
.S'1282430864458407936,179,133,45,123'
p1
.S'1282564150727938048,183,90,0,112'
p1
.S'1282515198326038528,196,81,63,84'
p1
.S'1282520525771874304,195,111,9,127'
p1
.S'1282474271360323584,194,0,0,0'
p1
.S'1282466487206064128,196,63,38,33'
p1
.S'1282470658689351680,180,48,17,38'
p1
.S'1282500458405310464,196,85,63,47'
p1
.S'1282496053668900864,172,40,14,29'
p1
.S'1282429222262398976,134,36,2,35'
p1
.S'1282495593792634880,189,55,50,52'
p1
.S'1288694878842523648,163,155,103,135'
p1
.S'1288780250406658048,195,3,1,2'
p1
.S'1288655624221372416,195,111,74,107'
p1
.S'1288654099738718208,195,122,188,11'
p1
.S'1288727047841484800,196,187,178,65'
p1
.S'1288706430454857728,178,78,16,78'
p1
.S'1288657296758808576,195,10,1,9'
p1
.S'1288729738189627392,195,83,54,57'
p1
.S'1288651961364844544,176,73,51,48'
p1
.S'1288669426337685504,196,88,18,81'
p1
.S'1288685292211056640,195,98,32,93'
p1
.S'1288687467062763520,196,178,87,237'
p1
.S'1288654839664238592,195,60,26,62'
p1
.S'1288669085349113856,196,21,9,12'
p1
.S'1288668348296716288,196,27,3,27'
p1
.S'1288715788450406400,196,143,169,118'
p1
.S'1288735862192324608,190,190,195,190'
p1
.S'1288695291549245440,196,146,32,152'
p1
.S'1288676113589612544,196,63,30,46'
p1
.S'1288688404061691904,182,73,63,55'
p1
.S'1288679252530958336,196,21,16,9'
p1
.S'1288688054147629056,195,127,124,130'
p1
.S'1288705705666613248,193,71,19,70'
p1
.S'1288754483450863616,165,6,1,5'
p1
.S'1288723291917762560,194,158,89,183'
p1
.S'1288811871155392512,193,50,5,62'
p1
.S'1288670666656313344,186,95,59,83'
p1
.S'1288700838897934336,173,4,0,4'
p1
.S'1288657794203295744,193,105,76,100'
p1
.S'1288724433691348992,179,73,34,55'
p1
.S'1288669049861369856,196,192,171,322'
p1
.S'1288676467382853632,195,18,3,15'
p1
.S'1288699622487101440,195,131,79,183'
p1
.S'1288729559449448448,194,162,169,148'
p1
.S'1288739943954747392,115,70,26,78'
p1
.S'1288665811652939776,384,197,127,202'
p1
.S'1288659393328062464,195,5,3,2'
p1
.S'1288665768887767040,196,121,67,103'
p1
.S'1288652489389907968,191,27,0,28'
p1
.S'1288709802767638528,196,129,79,93'
p1
.S'1288754550077349888,196,65,71,3'
p1
.S'1288687188221321216,114,37,26,27'
p1
.S'1288678772681363456,195,43,12,35'
p1
.S'1288666510776328192,194,148,135,143'
p1
.S'1288760289071964160,195,98,69,37'
p1
.S'1288685402781802496,191,134,104,162'
p1
.S'1288661730024701952,196,68,1,69'
p1
.S'1288695237606584320,194,92,22,83'
p1
.S'1288658529003151360,195,3,0,3'
p1
.S'1288745284343578624,192,192,192,135'
p1
.S'1288658772545642496,195,14,1,13'
p1
.S'1288696586968735744,193,107,54,113'
p1
.S'1288651493158866944,193,126,73,108'
p1
.S'1288798044263211008,190,183,337,262'
p1
.S'1288665791377657856,196,184,185,2'
p1
.S'1288747193649557504,204,46,3,45'
p1
.S'1288729256780054528,195,39,1,46'
p1
.S'1288672331362971648,192,33,14,26'
p1
.S'1288686800390750208,195,94,111,119'
p1
.S'1288706575850520576,195,80,78,49'
p1
.S'1288704422112800768,195,51,16,47'
p1
.S'1288786389496209408,196,125,129,28'
p1
.S'1288693003766149120,179,78,86,12'
p1
.S'1288776786993696768,193,48,6,44'
p1
.S'1288700641946275840,196,97,79,73'
p1
.S'1288711717781762048,196,58,43,27'
p1
.S'1288692941841911808,196,121,90,126'
p1
.S'1288664230484119552,186,138,95,74'
p1
.S'1288698788936327168,149,137,127,68'
p1
.S'1288734118737223680,195,195,196,230'
p1
.S'1288678364781109248,166,87,22,93'
p1
.S'1288691056174673920,196,156,164,25'
p1
.S'1288657502376267776,196,144,145,55'
p1
.S'1288697929729183744,180,37,5,32'
p1
.S'1288670172190228480,196,196,196,101'
p1
.S'1288743829172277248,194,0,0,0'
p1
.S'1288764104638951424,195,45,22,43'
p1
.S'1288652528522780672,180,0,0,0'
p1
.S'1288663713192321024,129,123,171,207'
p1
.S'1288669033759424512,161,47,12,40'
p1
.S'1288773993427533824,195,88,88,6'
p1
.S'1288684307145244672,195,18,7,12'
p1
.S'1288674464632053760,195,193,211,85'
p1
.S'1288694878842523648,163,155,103,135'
p1
.S'1288780250406658048,195,3,1,2'
p1
.S'1288682252192329728,194,165,127,139'
p1
.S'1288698756539551744,193,132,134,7'
p1
.S'1288655624221372416,195,111,74,107'
p1
.S'1288666236913410048,196,98,10,106'
p1
.S'1288654099738718208,195,122,188,11'
p1
.S'1288717926677241856,195,63,6,61'
p1
.S'1288727047841484800,196,187,178,65'
p1
.S'1288721304803221504,187,73,35,42'
p1
.S'1288706430454857728,178,78,16,78'
p1
.S'1288676619070128128,190,146,180,130'
p1
.S'1288657296758808576,195,10,1,9'
p1
.S'1288651106968289280,194,75,2,83'
p1
.S'1288729738189627392,195,83,54,57'
p1
.S'1288673288784404480,190,85,70,53'
p1
.S'1288651961364844544,176,73,51,48'
p1
.S'1288669215502786560,196,66,14,81'
p1
.S'1288669426337685504,196,88,18,81'
p1
.S'1288736252673617920,196,2,0,2'
p1
.S'1288651235654262784,151,11,7,4'
p1
.S'1288685292211056640,195,98,32,93'
p1
.S'1288687467062763520,196,178,87,237'
p1
.S'1288681376769781760,182,95,62,67'
p1
.S'1288659065828155392,193,25,6,24'
p1
.S'1288654839664238592,195,60,26,62'
p1
.S'1288689009983442944,185,126,1,125'
p1
.S'1288669085349113856,196,21,9,12'
p1
.S'1288808386825523200,196,171,103,165'
p1
.S'1288668348296716288,196,27,3,27'
p1
.S'1288715788450406400,196,143,169,118'
p1
.S'1288735862192324608,190,190,195,190'
p1
.S'1288695291549245440,196,146,32,152'
p1
.S'1288676113589612544,196,63,30,46'
p1
.S'1288688404061691904,182,73,63,55'
p1
.S'1288679252530958336,196,21,16,9'
p1
.S'1288688054147629056,195,127,124,130'
p1
.S'1288705705666613248,193,71,19,70'
p1
.S'1288754483450863616,165,6,1,5'
p1
.S'1288723291917762560,194,158,89,183'
p1
.S'1288811871155392512,193,50,5,62'
p1
.S'1288670666656313344,186,95,59,83'
p1
.S'1288700838897934336,173,4,0,4'
p1
.S'1288657794203295744,193,105,76,100'
p1
.S'1288724433691348992,179,73,34,55'
p1
.S'1288669049861369856,196,192,171,322'
p1
.S'1288676467382853632,195,18,3,15'
p1
.S'1288699622487101440,195,131,79,183'
p1
.S'1288729559449448448,194,162,169,148'
p1
.S'1288739943954747392,115,70,26,78'
p1
.S'1288665811652939776,384,197,127,202'
p1
.S'1288659393328062464,195,5,3,2'
p1
.S'1288665768887767040,196,121,67,103'
p1
.S'1288652489389907968,191,27,0,28'
p1
.S'1288709802767638528,196,129,79,93'
p1
.S'1288754550077349888,196,65,71,3'
p1
.S'1288687188221321216,114,37,26,27'
p1
.S'1288678772681363456,195,43,12,35'
p1
.S'1288666510776328192,194,148,135,143'
p1
.S'1288760289071964160,195,98,69,37'
p1
.S'1288685402781802496,191,134,104,162'
p1
.S'1288661730024701952,196,68,1,69'
p1
.S'1288695237606584320,194,92,22,83'
p1
.S'1288658529003151360,195,3,0,3'
p1
.S'1288745284343578624,192,192,192,135'
p1
.S'1288658772545642496,195,14,1,13'
p1
.S'1288696586968735744,193,107,54,113'
p1
.S'1288651493158866944,193,126,73,108'
p1
.S'1288798044263211008,190,183,337,262'
p1
.S'1288665791377657856,196,184,185,2'
p1
.S'1288747193649557504,204,46,3,45'
p1
.S'1288729256780054528,195,39,1,46'
p1
.S'1288672331362971648,192,33,14,26'
p1
.S'1288686800390750208,195,94,111,119'
p1
.S'1288706575850520576,195,80,78,49'
p1
.S'1288704422112800768,195,51,16,47'
p1
.S'1288786389496209408,196,125,129,28'
p1
.S'1288693003766149120,179,78,86,12'
p1
.S'1288776786993696768,193,48,6,44'
p1
.S'1288700641946275840,196,97,79,73'
p1
.S'1288711717781762048,196,58,43,27'
p1
.S'1288692941841911808,196,121,90,126'
p1
.S'1288664230484119552,186,138,95,74'
p1
.S'1288698788936327168,149,137,127,68'
p1
.S'1288734118737223680,195,195,196,230'
p1
.S'1288678364781109248,166,87,22,93'
p1
.S'1288691056174673920,196,156,164,25'
p1
.S'1288657502376267776,196,144,145,55'
p1
.S'1288697929729183744,180,37,5,32'
p1
.S'1288670172190228480,196,196,196,101'
p1
.S'1288743829172277248,194,0,0,0'
p1
.S'1288764104638951424,195,45,22,43'
p1
.S'1288652528522780672,180,0,0,0'
p1
.S'1288663713192321024,129,123,171,207'
p1
.S'1288669033759424512,161,47,12,40'
p1
.S'1288773993427533824,195,88,88,6'
p1
.S'1288684307145244672,195,18,7,12'
p1
.S'1288674464632053760,195,193,211,85'
p1
.S'1288682252192329728,194,165,127,139'
p1
.S'1288698756539551744,193,132,134,7'
p1
.S'1288666236913410048,196,98,10,106'
p1
.S'1288717926677241856,195,63,6,61'
p1
.S'1288721304803221504,187,73,35,42'
p1
.S'1288676619070128128,190,146,180,130'
p1
.S'1288651106968289280,194,75,2,83'
p1
.S'1288673288784404480,190,85,70,53'
p1
.S'1288669215502786560,196,66,14,81'
p1
.S'1288736252673617920,196,2,0,2'
p1
.S'1288651235654262784,151,11,7,4'
p1
.S'1288681376769781760,182,95,62,67'
p1
.S'1288659065828155392,193,25,6,24'
p1
.S'1288689009983442944,185,126,1,125'
p1
.S'1288808386825523200,196,171,103,165'
p1
.S'1282463017149812736,171,7,0,7'
p1
.S'1282520525771874304,195,111,9,127'
p1
.S'1282543508020215808,195,22,3,21'
p1
.S'1282514487110963200,196,44,7,53'
p1
.S'1282543701096644608,196,134,120,74'
p1
.S'1282461310953070592,196,122,81,123'
p1
.S'1282467048492060672,195,76,26,85'
p1
.S'1282564944419782656,195,2,2,0'
p1
.S'1282508964562862080,196,88,63,33'
p1
.S'1282459697320493056,196,108,54,129'
p1
.S'1282582874536685568,196,170,169,146'
p1
.S'1282537001102745600,193,138,131,90'
p1
.S'1282525613420404736,161,43,3,42'
p1
.S'1282470658689351680,180,48,17,38'
p1
.S'1282545483340005376,196,88,63,98'
p1
.S'1282478311117049856,196,196,202,179'
p1
.S'1282540674989879296,185,50,25,29'
p1
.S'1282495075209158656,190,105,88,31'
p1
.S'1282504995425644544,195,4,1,3'
p1
.S'1282519331980627968,155,15,1,16'
p1
.S'1282545483340005376,196,88,63,98'
p1
.S'1282447043109265408,195,83,80,15'
p1
.S'1282532160074919936,195,85,4,85'
p1
.S'1282532885878272000,196,31,8,23'
p1
.