(lp0
S'1449016201'
p1
aS'1448816402'
p2
aS'1448854202'
p3
aS'1449057602'
p4
aS'1448942401'
p5
aS'1448951401'
p6
aS'1451412008'
p7
aS'1448762402'
p8
aS'1450256408'
p9
aS'1448775001'
p10
aS'1448769601'
p11
a.