S'1290404174164836352,189,63,64'
p1
.S'1290457668368080896,195,0,1'
p1
.S'1290474319033581568,194,4,5'
p1
.S'1290442361100546048,195,27,28'
p1
.S'1290434946409848832,194,73,74'
p1
.S'1290480992385232896,196,84,85'
p1
.S'1290475008904585216,171,162,170'
p1
.S'1290332010556035072,194,175,176'
p1
.S'1290453677928243200,61,2,3'
p1
.S'1290446486941106176,195,166,171'
p1
.S'1290452828749492224,180,110,112'
p1
.S'1290502174417240064,193,152,153'
p1
.S'1290394221630693376,195,0,1'
p1
.S'1290469096701472768,195,48,49'
p1
.S'1290433079026106368,147,13,14'
p1
.S'1290485317496872960,195,139,149'
p1
.S'1290498650975657984,180,92,93'
p1
.S'1290421158969339904,195,86,87'
p1
.S'1290412685858877440,195,93,94'
p1
.S'1290478031655604224,188,85,119'
p1
.S'1290461389890392064,190,1,3'
p1
.S'1290467872954839040,140,107,108'
p1
.S'1290478793156661248,169,16,17'
p1
.S'1290456447595237376,183,157,190'
p1
.S'1290457435454492672,196,23,24'
p1
.S'1290471265316081664,196,196,198'
p1
.S'1290441272481685504,195,116,141'
p1
.