S'1283608232811773952,195,87,89'
p1
.S'1283595706363502592,195,20,22'
p1
.S'1283598036287070208,196,139,140'
p1
.S'1283594310897836032,196,23,25'
p1
.S'1283616609428533248,203,116,132'
p1
.S'1283598811406999552,196,111,114'
p1
.S'1283572210170765312,195,0,1'
p1
.S'1283616099686133760,177,60,69'
p1
.S'1283603552417521664,194,59,71'
p1
.S'1283606724259069952,190,15,16'
p1
.S'1283586104754855936,195,0,1'
p1
.S'1283606588711927808,195,21,23'
p1
.S'1283600283552944128,183,36,41'
p1
.S'1282772732521697280,193,126,127'
p1
.S'1282782763539730432,193,17,18'
p1
.S'1282915035811303424,194,3,4'
p1
.S'1282906927109931008,137,137,228'
p1
.S'1282771464542158848,124,0,1'
p1
.S'1282941598019248128,195,0,1'
p1
.S'1282809679604535296,194,36,37'
p1
.S'1282858243844407296,179,2,3'
p1
.S'1282918428256227328,190,21,22'
p1
.S'1282919167687303168,192,155,158'
p1
.S'1282887638667665408,176,9,10'
p1
.S'1282875174098214912,195,63,68'
p1
.S'1282810244246253568,190,158,253'
p1
.S'1282927218489794560,194,0,1'
p1
.S'1282821828573859840,188,162,164'
p1
.S'1282831602615001088,196,33,49'
p1
.S'1282899490558861312,196,18,19'
p1
.S'1282854181669142528,179,121,207'
p1
.S'1282827087509880832,195,121,126'
p1
.S'1282906351194324992,195,51,52'
p1
.S'1282827425474121728,179,1,2'
p1
.S'1282882412606849024,195,4,5'
p1
.S'1283676300023844864,174,74,83'
p1
.S'1283665904768643072,195,17,23'
p1
.S'1283625839304589312,196,23,24'
p1
.S'1283688061070712832,170,115,116'
p1
.S'1283701487163387904,194,0,1'
p1
.S'1283649593862987776,186,22,29'
p1
.S'1283653245650477056,180,41,56'
p1
.S'1283708661063364608,195,0,1'
p1
.S'1283630682823897088,181,19,27'
p1
.S'1283648551305564160,192,21,55'
p1
.S'1283646987287371776,196,150,247'
p1
.S'1283690544832884736,196,66,93'
p1
.S'1283703431193907200,191,57,61'
p1
.S'1283628983359524864,196,144,149'
p1
.S'1283623873078059008,193,13,14'
p1
.S'1283639468657950720,194,0,1'
p1
.S'1283682568533168128,195,9,10'
p1
.S'1283634952658964480,181,94,97'
p1
.S'1283641871599542272,195,108,115'
p1
.S'1283659789515759616,196,60,64'
p1
.S'1283645005835501568,182,0,1'
p1
.S'1283774260271620096,156,50,93'
p1
.S'1283646778075672576,176,0,1'
p1
.S'1283658434809663488,194,13,14'
p1
.S'1283677006865272832,188,50,67'
p1
.S'1283649369370951680,195,55,56'
p1
.S'1283626040488534016,196,19,20'
p1
.S'1283648693190946816,131,3,4'
p1
.S'1283250234956369920,196,161,324'
p1
.S'1283283657439969280,194,9,10'
p1
.S'1283256620259971072,196,13,14'
p1
.S'1283204354648236032,195,20,21'
p1
.S'1283289910065139712,195,195,362'
p1
.S'1283223352140009472,195,24,25'
p1
.S'1283211441658826752,188,32,34'
p1
.S'1283245333950365696,196,1,2'
p1
.S'1283263437430214656,195,115,136'
p1
.S'1283191932218429440,157,2,3'
p1
.S'1283199714006872064,194,190,260'
p1
.S'1283237750791389184,195,74,82'
p1
.S'1283243997732687872,177,12,13'
p1
.S'1283215966385668096,177,1,2'
p1
.S'1283240728625598464,196,11,12'
p1
.S'1283247100939399168,172,31,41'
p1
.S'1283317455431012352,187,91,92'
p1
.S'1283203690320756736,178,36,37'
p1
.S'1283248878095130624,195,164,165'
p1
.S'1283218393918525440,189,41,42'
p1
.S'1283187718734143488,195,172,210'
p1
.S'1283228184867213312,195,12,13'
p1
.S'1283245965998280704,193,67,69'
p1
.S'1283277604203945984,196,182,192'
p1
.S'1283245164219518976,195,36,37'
p1
.S'1283254581425541120,195,37,38'
p1
.S'1283247569652387840,190,3,4'
p1
.S'1283216640423133184,191,111,117'
p1
.S'1283204354648236032,195,20,21'
p1
.S'1283218393918525440,189,41,42'
p1
.S'1283240970582196224,196,70,74'
p1
.S'1293667376109387776,195,193,194'
p1
.S'1293651264529629184,195,82,83'
p1
.S'1293657045110808576,195,0,1'
p1
.S'1293651941070905344,181,127,155'
p1
.S'1293632742235451392,185,1,2'
p1
.S'1293637481266606080,193,55,68'
p1
.S'1293594939871379456,195,1,2'
p1
.S'1293645686528684032,141,114,163'
p1
.S'1293637114696798208,195,47,53'
p1
.S'1293656052084191232,99,12,13'
p1
.S'1293639217104474112,189,0,1'
p1
.S'1293671016639635456,178,41,45'
p1
.S'1293661596555563008,158,96,183'
p1
.S'1293646237773737984,191,151,152'
p1
.S'1293664980394254336,195,2,3'
p1
.S'1293649080555364352,169,28,44'
p1
.S'1293642705037099008,195,0,1'
p1
.S'1293673597671448576,196,47,62'
p1
.S'1293670039593144320,195,0,1'
p1
.S'1293663168261963776,188,69,72'
p1
.S'1293506949270401025,196,17,19'
p1
.S'1293651438484041728,189,74,75'
p1
.S'1293650807631568896,194,2,3'
p1
.S'1293631475878678528,196,31,41'
p1
.S'1293650144998440960,181,42,43'
p1
.S'1293516246918291456,195,1,2'
p1
.S'1293666634296639488,81,0,1'
p1
.S'1293648730377154560,192,0,1'
p1
.S'1293641445634658304,195,1,2'
p1
.S'1293527154843430912,195,12,13'
p1
.S'1293657366532947968,195,2,3'
p1
.S'1293636193833119744,170,8,9'
p1
.S'1293626532790943744,195,70,72'
p1
.S'1293674538881687552,194,123,142'
p1
.S'1293665830214737920,194,160,267'
p1
.S'1293553157443637248,196,135,144'
p1
.S'1293655830486753280,195,10,11'
p1
.S'1293621194423468032,186,2,3'
p1
.S'1293625710577168384,195,11,12'
p1
.S'1293627638556078080,195,139,141'
p1
.S'1293639233441062912,195,2,3'
p1
.S'1293658657690656768,196,196,198'
p1
.S'1293672129191182337,195,25,29'
p1
.S'1293645880699875328,174,114,185'
p1
.S'1293660020592009216,190,80,82'
p1
.S'1293659146461536256,196,184,187'
p1
.S'1293656011001171968,150,20,22'
p1
.S'1293535604407427072,184,151,152'
p1
.S'1293504292644605952,196,71,91'
p1
.S'1293499472730648576,196,38,39'
p1
.S'1293514280813371392,195,10,11'
p1
.S'1293665611792183296,196,45,46'
p1
.S'1293609165763371008,195,14,15'
p1
.S'1293668505237254144,195,51,54'
p1
.S'1293645149083226112,189,47,57'
p1
.S'1293662691013058560,131,0,1'
p1
.S'1293667515276361728,193,3,4'
p1
.S'1293668168551772160,192,49,50'
p1
.S'1293597895198969856,195,0,1'
p1
.S'1293666801422893056,128,55,56'
p1
.S'1293646920958808064,194,4,5'
p1
.S'1293629411387715584,195,98,133'
p1
.S'1293642387440443392,186,0,1'
p1
.S'1293568882455490560,188,98,101'
p1
.S'1293630612338593792,195,148,150'
p1
.S'1293644665383436288,174,92,95'
p1
.S'1293653439364349952,193,0,1'
p1
.S'1293648386838405120,194,0,1'
p1
.S'1293676749510561793,195,2,3'
p1
.S'1293611012314296320,195,25,26'
p1
.S'1293614086919192576,121,0,1'
p1
.S'1293644015526371328,184,0,1'
p1
.S'1293672392392310784,192,51,68'
p1
.S'1293622423345905664,189,44,45'
p1
.S'1293672665160523776,196,62,64'
p1
.S'1293554892576792576,195,143,192'
p1
.S'1293642450568658944,195,43,44'
p1
.S'1293666598837772288,157,0,1'
p1
.S'1293672935324016640,133,50,52'
p1
.S'1282508294237339648,194,0,1'
p1
.S'1282499573650227200,195,2,3'
p1
.S'1282532160074919936,195,4,5'
p1
.S'1282511620253339648,195,40,41'
p1
.S'1282484959118094336,196,95,109'
p1
.S'1282537001102745600,193,127,132'
p1
.S'1282433335825686528,195,129,130'
p1
.S'1282533393388974080,194,128,129'
p1
.S'1282489382939000832,191,5,6'
p1
.S'1282430864458407936,179,45,46'
p1
.S'1282564150727938048,183,0,1'
p1
.S'1282515198326038528,196,63,64'
p1
.S'1282520525771874304,195,9,10'
p1
.S'1282474271360323584,194,0,1'
p1
.S'1282466487206064128,196,38,39'
p1
.S'1282470658689351680,180,17,18'
p1
.S'1282500458405310464,196,56,64'
p1
.S'1282496053668900864,172,13,15'
p1
.S'1282429222262398976,134,2,3'
p1
.S'1282495593792634880,189,50,51'
p1
.S'1288694878842523648,163,103,104'
p1
.S'1288780250406658048,195,1,2'
p1
.S'1288655624221372416,195,67,75'
p1
.S'1288654099738718208,195,116,189'
p1
.S'1288727047841484800,196,173,179'
p1
.S'1288706430454857728,178,15,17'
p1
.S'1288657296758808576,195,1,2'
p1
.S'1288729738189627392,195,53,55'
p1
.S'1288651961364844544,176,43,52'
p1
.S'1288669426337685504,196,17,19'
p1
.S'1288685292211056640,195,32,33'
p1
.S'1288687467062763520,196,86,88'
p1
.S'1288654839664238592,195,26,27'
p1
.S'1288669085349113856,196,9,10'
p1
.S'1288668348296716288,196,3,4'
p1
.S'1288715788450406400,196,123,170'
p1
.S'1288735862192324608,190,190,196'
p1
.S'1288695291549245440,196,32,33'
p1
.S'1288676113589612544,196,28,31'
p1
.S'1288688404061691904,182,61,64'
p1
.S'1288679252530958336,196,15,17'
p1
.S'1288688054147629056,195,102,125'
p1
.S'1288705705666613248,193,19,20'
p1
.S'1288754483450863616,165,1,2'
p1
.S'1288723291917762560,194,88,90'
p1
.S'1288811871155392512,193,5,6'
p1
.S'1288670666656313344,186,59,60'
p1
.S'1288700838897934336,173,0,1'
p1
.S'1288657794203295744,193,76,77'
p1
.S'1288724433691348992,179,33,35'
p1
.S'1288669049861369856,196,154,172'
p1
.S'1288676467382853632,195,3,4'
p1
.S'1288699622487101440,195,58,80'
p1
.S'1288729559449448448,194,156,170'
p1
.S'1288739943954747392,115,25,27'
p1
.S'1288665811652939776,384,125,128'
p1
.S'1288659393328062464,195,3,4'
p1
.S'1288665768887767040,196,65,68'
p1
.S'1288652489389907968,191,0,1'
p1
.S'1288709802767638528,196,79,80'
p1
.S'1288754550077349888,196,65,72'
p1
.S'1288687188221321216,114,26,27'
p1
.S'1288678772681363456,195,12,13'
p1
.S'1288666510776328192,194,135,136'
p1
.S'1288760289071964160,195,68,70'
p1
.S'1288685402781802496,191,93,105'
p1
.S'1288661730024701952,196,1,2'
p1
.S'1288695237606584320,194,22,23'
p1
.S'1288658529003151360,195,0,1'
p1
.S'1288745284343578624,192,192,193'
p1
.S'1288658772545642496,195,1,2'
p1
.S'1288696586968735744,193,52,55'
p1
.S'1288651493158866944,193,65,74'
p1
.S'1288798044263211008,190,175,338'
p1
.S'1288665791377657856,196,184,186'
p1
.S'1288747193649557504,204,3,4'
p1
.S'1288729256780054528,195,1,2'
p1
.S'1288672331362971648,192,12,15'
p1
.S'1288686800390750208,195,64,112'
p1
.S'1288706575850520576,195,78,79'
p1
.S'1288704422112800768,195,16,17'
p1
.S'1288786389496209408,196,121,130'
p1
.S'1288693003766149120,179,72,87'
p1
.S'1288776786993696768,193,6,7'
p1
.S'1288700641946275840,196,61,80'
p1
.S'1288711717781762048,196,40,44'
p1
.S'1288692941841911808,196,85,91'
p1
.S'1288664230484119552,186,95,96'
p1
.S'1288698788936327168,149,123,128'
p1
.S'1288734118737223680,195,195,197'
p1
.S'1288678364781109248,166,22,23'
p1
.S'1288691056174673920,196,146,165'
p1
.S'1288657502376267776,196,121,146'
p1
.S'1288697929729183744,180,5,6'
p1
.S'1288670172190228480,196,193,197'
p1
.S'1288743829172277248,194,0,1'
p1
.S'1288764104638951424,195,21,23'
p1
.S'1288652528522780672,180,0,1'
p1
.S'1288663713192321024,129,107,172'
p1
.S'1288669033759424512,161,11,13'
p1
.S'1288773993427533824,195,87,89'
p1
.S'1288684307145244672,195,7,8'
p1
.S'1288674464632053760,195,191,212'
p1
.S'1288682252192329728,194,122,128'
p1
.S'1288698756539551744,193,132,135'
p1
.S'1288666236913410048,196,10,11'
p1
.S'1288717926677241856,195,6,7'
p1
.S'1288721304803221504,187,34,36'
p1
.S'1288676619070128128,190,130,181'
p1
.S'1288651106968289280,194,2,3'
p1
.S'1288673288784404480,190,70,71'
p1
.S'1288669215502786560,196,13,15'
p1
.S'1288736252673617920,196,0,1'
p1
.S'1288651235654262784,151,7,8'
p1
.S'1288681376769781760,182,60,63'
p1
.S'1288659065828155392,193,6,7'
p1
.S'1288689009983442944,185,1,2'
p1
.S'1288808386825523200,196,72,104'
p1
.S'1282463017149812736,171,0,1'
p1
.S'1282520525771874304,195,9,10'
p1
.S'1282543508020215808,195,3,4'
p1
.S'1282514487110963200,196,7,8'
p1
.S'1282543701096644608,196,110,121'
p1
.S'1282461310953070592,196,80,82'
p1
.S'1282467048492060672,195,26,27'
p1
.S'1282564944419782656,195,2,3'
p1
.S'1282508964562862080,196,61,64'
p1
.S'1282459697320493056,196,47,55'
p1
.S'1282582874536685568,196,169,170'
p1
.S'1282537001102745600,193,127,132'
p1
.S'1282525613420404736,161,3,4'
p1
.S'1282470658689351680,180,17,18'
p1
.S'1282545483340005376,196,62,64'
p1
.S'1282478311117049856,196,193,203'
p1
.S'1282540674989879296,185,25,26'
p1
.S'1282495075209158656,190,86,89'
p1
.S'1282504995425644544,195,1,2'
p1
.S'1282519331980627968,155,1,2'
p1
.S'1282545483340005376,196,62,64'
p1
.S'1282447043109265408,195,75,81'
p1
.S'1282532160074919936,195,4,5'
p1
.S'1282532885878272000,196,8,9'
p1
.S'1283978462461612032,196,112,114'
p1
.S'1283978494967422976,195,2,3'
p1
.S'1283946352459792384,195,76,98'
p1
.S'1284043442938855424,195,159,174'
p1
.S'1283980826480652288,163,0,1'
p1
.S'1284029359816630272,195,0,1'
p1
.S'1283940189836062720,193,19,20'
p1
.S'1292895485216366592,188,0,1'
p1
.S'1292972692261490688,182,75,99'
p1
.S'1292918513794777088,186,1,2'
p1
.S'1292984787992502272,191,22,23'
p1
.S'1293010598178729984,193,8,9'
p1
.S'1292984080106934272,192,100,103'
p1
.S'1292945408305291264,194,0,1'
p1
.S'1292987373864800256,163,5,6'
p1
.S'1292950580272496640,195,51,52'
p1
.S'1293031862738042880,194,1,2'
p1
.S'1293016382786740224,196,0,1'
p1
.S'1292912999505514496,150,0,1'
p1
.S'1293006062366101504,139,47,63'
p1
.S'1293015910080237568,184,2,3'
p1
.S'1292969177266929664,176,34,46'
p1
.S'1293009360863313920,196,194,246'
p1
.S'1293011962216833024,196,174,189'
p1
.S'1293023186883178496,192,0,1'
p1
.S'1293005877254955008,195,73,84'
p1
.S'1293022009974013952,170,55,89'
p1
.S'1292970251893784576,127,16,17'
p1
.S'1293011393620111360,196,78,82'
p1
.S'1292985844759953408,195,65,66'
p1
.S'1293034122800963584,191,8,9'
p1
.S'1293006132293603328,181,106,138'
p1
.S'1292948154928574464,195,4,5'
p1
.S'1293016906298744832,190,98,100'
p1
.S'1292931768168615936,194,13,14'
p1
.S'1292986282045489152,195,7,8'
p1
.S'1293013830158413824,196,9,10'
p1
.S'1293002422020694016,196,75,76'
p1
.S'1292987142100099072,196,94,106'
p1
.S'1292980748458106880,196,13,14'
p1
.S'1292941039547695104,196,35,36'
p1
.S'1292912867141918720,177,3,4'
p1
.S'1292958369254109184,192,11,12'
p1
.S'1292980625800101888,194,185,487'
p1
.S'1293040077882179584,195,3,4'
p1
.S'1292937061258948608,162,2,3'
p1
.S'1292943282590167040,186,9,10'
p1
.S'1293028828213583872,189,93,96'
p1
.S'1292961463249612800,191,5,6'
p1
.S'1292985422368182272,169,3,5'
p1
.S'1292936152923426816,195,1,2'
p1
.S'1293003342750294016,185,47,48'
p1
.S'1293029986017873920,196,37,42'
p1
.S'1293030299059539968,194,194,195'
p1
.S'1292938756390821888,196,35,46'
p1
.S'1293002036392194048,196,13,15'
p1
.S'1292987661933522944,196,91,92'
p1
.S'1293012004126470144,194,166,227'
p1
.S'1292969999270555648,195,183,186'
p1
.S'1293011125897940992,194,16,17'
p1
.S'1292999612076122112,195,3,4'
p1
.S'1293007645019914240,195,5,6'
p1
.S'1293011217597992960,195,41,43'
p1
.S'1292936060489596928,193,58,60'
p1
.S'1293026742495277056,196,20,21'
p1
.S'1292946003837812736,195,15,18'
p1
.S'1292981716046503936,191,149,150'
p1
.S'1292979475860090880,180,24,25'
p1
.S'1293014886187991040,196,25,26'
p1
.S'1293031165154217984,195,52,60'
p1
.S'1293010770208391168,196,72,74'
p1
.S'1292927924214837248,195,9,10'
p1
.S'1293014845150601216,193,59,90'
p1
.S'1292995965212889088,161,68,100'
p1
.S'1292908833240715264,192,129,199'
p1
.S'1292968006095450112,178,1,2'
p1
.S'1292957948968116224,151,97,159'
p1
.S'1292951442977611776,195,24,30'
p1
.S'1292980300724551680,191,48,49'
p1
.S'1292999682146078720,97,0,1'
p1
.S'1293005309597851648,145,20,21'
p1
.S'1293024709654790144,189,189,192'
p1
.S'1292971387174170624,189,157,256'
p1
.S'1293017497037148160,193,9,11'
p1
.S'1292938587310084096,195,24,25'
p1
.S'1292992394412920832,195,95,98'
p1
.S'1293033203573346304,161,28,29'
p1
.S'1292946589530345472,196,137,155'
p1
.S'1292997057287770112,174,127,133'
p1
.S'1292929369219923968,195,19,20'
p1
.S'1293008045835800576,195,35,37'
p1
.S'1292984433838071808,189,189,220'
p1
.S'1292988582595805184,129,93,94'
p1
.S'1293033683338788864,193,43,44'
p1
.S'1293009812979941376,196,2,3'
p1
.S'1293011316214255616,193,179,180'
p1
.S'1292998380045459456,190,6,7'
p1
.S'1292954812060942336,195,0,1'
p1
.S'1292912131947495424,180,42,43'
p1
.S'1292933943972216832,195,7,8'
p1
.S'1293022410861322240,196,11,12'
p1
.S'1293016852339240960,196,10,11'
p1
.S'1283633231136194560,158,83,84'
p1
.S'1283595763402334208,195,92,96'
p1
.S'1283620080978427904,196,6,7'
p1
.S'1283566491257974784,178,163,175'
p1
.S'1283600283552944128,183,36,41'
p1
.S'1283651464996487168,195,178,179'
p1
.S'1283618170934554624,194,44,48'
p1
.S'1283626040488534016,196,19,20'
p1
.S'1283589023369170944,193,179,195'
p1
.S'1283608483664719872,178,13,14'
p1
.S'1283588797153570816,189,107,109'
p1
.S'1283591670826475520,195,149,150'
p1
.S'1283662059883659264,195,0,1'
p1
.S'1283612481725911040,194,77,78'
p1
.S'1283625098535940096,131,0,1'
p1
.S'1283610254625701888,196,30,31'
p1
.S'1283623873078059008,193,13,14'
p1
.S'1283633856612311040,196,6,7'
p1
.S'1283639468657950720,194,0,1'
p1
.S'1283566151577845760,196,30,31'
p1
.S'1283617071015612416,194,41,43'
p1
.S'1283594310897836032,196,23,25'
p1
.S'1283597858729320448,184,184,257'
p1
.S'1283628453660405760,185,6,7'
p1
.S'1283576274333646848,190,115,120'
p1
.S'1283516869684473856,170,169,305'
p1
.S'1283518396880842752,195,11,12'
p1
.S'1283614924949893120,195,93,127'
p1
.S'1283596727601020928,189,1,2'
p1
.S'1283586104754855936,195,0,1'
p1
.S'1283601506670616576,195,136,137'
p1
.S'1283662059883659264,195,0,1'
p1
.S'1283566151577845760,196,30,31'
p1
.S'1283594310897836032,196,23,25'
p1
.S'1283597011132018688,184,132,133'
p1
.S'1283659789515759616,196,60,64'
p1
.S'1283603552417521664,194,59,71'
p1
.S'1283595706363502592,195,20,22'
p1
.S'1283613752163708928,188,68,69'
p1
.S'1283625901275713536,174,105,106'
p1
.S'1283598036287070208,196,139,140'
p1
.S'1283578956133945344,195,3,4'
p1
.S'1283601789342113792,194,192,194'
p1
.S'1283641034077044736,192,42,135'
p1
.S'1283600283552944128,183,36,41'
p1
.S'1283606588711927808,195,21,23'
p1
.S'1283622122581065728,195,195,1479'
p1
.S'1283610254625701888,196,30,31'
p1
.S'1282292547053879296,186,1,2'
p1
.S'1282438706217070592,195,25,26'
p1
.S'1282404465169006592,182,24,26'
p1
.S'1282407580886626304,181,18,19'
p1
.S'1282426190757568512,194,70,108'
p1
.S'1282439007502303232,195,128,140'
p1
.S'1282430864458407936,179,45,46'
p1
.S'1282373670081343488,190,0,1'
p1
.S'1282416254342291456,191,98,107'
p1
.S'1282415720986755072,188,1,2'
p1
.S'1282439023537082368,190,6,7'
p1
.S'1282353026186784768,135,0,1'
p1
.S'1282453037293740032,141,3,4'
p1
.S'1282381790946160640,179,0,1'
p1
.S'1282412222840520704,151,106,115'
p1
.S'1282448683061096448,195,0,1'
p1
.S'1282401208023343104,194,91,96'
p1
.S'1282387688804716544,194,0,1'
p1
.S'1282424422515015680,195,13,14'
p1
.S'1282869410272862208,195,25,38'
p1
.S'1282879962130632704,195,164,185'
p1
.S'1282821828573859840,188,162,164'
p1
.S'1282915544495992832,192,80,82'
p1
.S'1282882412606849024,195,4,5'
p1
.S'1282887638667665408,176,9,10'
p1
.S'1282831849588445184,192,52,57'
p1
.S'1282864919951327232,193,38,56'
p1
.S'1282901091369074688,194,0,1'
p1
.S'1282930955694301184,116,2,3'
p1
.S'1282907700359503872,164,74,93'
p1
.S'1282955899912286208,195,28,41'
p1
.S'1289113714494185472,196,121,188'
p1
.S'1289109887846129664,183,22,25'
p1
.S'1289137204782084096,195,1,2'
p1
.S'1289260680737898496,194,14,16'
p1
.S'1289269387056074752,180,2,3'
p1
.S'1289143974350721024,193,0,1'
p1
.S'1289142950965764096,196,88,89'
p1
.S'1289250406845026304,194,0,1'
p1
.S'1289171056527101952,150,90,91'
p1
.S'1289263687470882816,191,178,188'
p1
.S'1289146799281659904,160,140,241'
p1
.S'1289278398946250752,181,26,29'
p1
.S'1289117230805946368,195,75,80'
p1
.S'1289266300186705920,190,0,1'
p1
.S'1289127137709846528,189,26,34'
p1
.S'1289248612991303680,99,0,1'
p1
.S'1289155352046526464,192,0,1'
p1
.S'1289171544521797632,195,24,26'
p1
.S'1289149276710400000,97,29,30'
p1
.S'1289150837666799616,178,0,1'
p1
.S'1289139669807902720,196,146,147'
p1
.S'1289275757901889536,196,10,11'
p1
.S'1289137824758927360,185,62,63'
p1
.S'1289106972230447104,58,57,103'
p1
.S'1289108588962463744,194,0,1'
p1
.S'1289276947985276928,180,37,39'
p1
.S'1289137359614595072,183,61,62'
p1
.S'1289136689948065792,195,2,3'
p1
.S'1289126022591229952,195,19,22'
p1
.S'1289142199581540352,59,58,106'
p1
.S'1289136711284166656,195,1,2'
p1
.S'1289138254616072192,187,77,90'
p1
.S'1289115074065272832,189,115,197'
p1
.S'1289250541884628992,196,28,29'
p1
.S'1289169751150673920,158,1,2'
p1
.S'1289103918030577664,192,121,182'
p1
.S'1289131111553093632,191,191,215'
p1
.S'1289139036673425408,197,100,107'
p1
.S'1289110706406707200,170,56,64'
p1
.S'1289130089514229760,180,0,1'
p1
.S'1289270052323241984,172,0,1'
p1
.S'1289109186600636416,195,147,223'
p1
.S'1289103630666207232,195,20,21'
p1
.S'1289251663932473344,195,31,37'
p1
.S'1289261927482220544,195,195,196'
p1
.S'1289248594528034816,195,195,196'
p1
.S'1289270733616361472,181,6,7'
p1
.S'1289259269426192384,195,73,101'
p1
.S'1289282453399568384,163,33,34'
p1
.S'1289130675244544000,196,2,3'
p1
.S'1289121579330367488,195,147,166'
p1
.S'1289133914505564160,194,131,133'
p1
.S'1289138659228303360,181,12,14'
p1
.S'1289135863779209216,195,82,85'
p1
.S'1289135820648906752,194,58,59'
p1
.S'1289122484515479552,195,32,47'
p1
.S'1289127972447920128,195,12,13'
p1
.S'1289129713767694336,196,74,75'
p1
.S'1289133715993325568,196,66,78'
p1
.S'1289237777946492928,182,95,141'
p1
.S'1289266134352363520,195,182,404'
p1
.S'1289118731875819520,183,19,20'
p1
.S'1289120435014905856,166,0,1'
p1
.S'1289243475413716992,196,2,3'
p1
.S'1289148661426806784,193,104,107'
p1
.S'1289168880018890752,195,155,224'
p1
.S'1289175562321076224,195,63,88'
p1
.S'1289269009560543232,196,33,35'
p1
.S'1289261770028056576,195,2,3'
p1
.S'1289217658289582080,194,0,1'
p1
.S'1289113750204739584,184,134,135'
p1
.S'1289269194508193792,185,8,9'
p1
.S'1289139019439083520,180,169,172'
p1
.S'1289257778451742720,195,1,2'
p1
.S'1289177648245178368,179,25,28'
p1
.S'1289110427653054464,194,1,2'
p1
.S'1289236526240350208,182,151,153'
p1
.S'1289238665041776640,163,6,7'
p1
.S'1289258467286216704,191,93,96'
p1
.S'1289270328329236480,196,0,1'
p1
.S'1289277730818818048,179,0,1'
p1
.S'1289108547476623360,180,66,67'
p1
.S'1289277388366168064,196,55,56'
p1
.S'1289131257095131136,194,3,4'
p1
.S'1289129045757702144,195,60,61'
p1
.S'1289123629841715200,177,7,8'
p1
.S'1289200610033438720,195,26,30'
p1
.S'1289141862749433856,192,49,52'
p1
.S'1289139049046732800,196,186,187'
p1
.S'1289273050629558272,182,4,5'
p1
.S'1293076778260238336,130,1,2'
p1
.S'1293045964353241088,194,0,1'
p1
.S'1293111363165900800,195,104,105'
p1
.S'1292957948968116224,151,97,159'
p1
.S'1293098061442277376,196,6,7'
p1
.S'1292986282045489152,195,7,8'
p1
.S'1292979475860090880,180,24,25'
p1
.S'1293023186883178496,192,0,1'
p1
.S'1293011125897940992,194,16,17'
p1
.S'1293015910080237568,184,2,3'
p1
.S'1292961463249612800,191,5,6'
p1
.S'1293099839332184064,194,0,1'
p1
.S'1293010598178729984,193,8,9'
p1
.S'1293009360863313920,196,194,246'
p1
.S'1293022410861322240,196,11,12'
p1
.S'1293098198411448320,195,139,148'
p1
.S'1293090345843912704,151,139,273'
p1
.S'1293076590942699520,179,7,8'
p1
.S'1293011316214255616,193,179,180'
p1
.S'1293016906298744832,190,98,100'
p1
.S'1293059781363687424,195,23,24'
p1
.S'1293121029388050432,141,7,8'
p1
.S'1292970251893784576,127,16,17'
p1
.S'1293013830158413824,196,9,10'
p1
.S'1293058501241126912,196,2,3'
p1
.S'1293076070538608640,192,0,1'
p1
.S'1293031165154217984,195,52,60'
p1
.S'1293007645019914240,195,5,6'
p1
.S'1293083886280175616,195,15,16'
p1
.S'1293097694319054848,196,76,77'
p1
.S'1293109874578087936,187,55,57'
p1
.S'1292988582595805184,129,93,94'
p1
.S'1292985844759953408,195,65,66'
p1
.S'1293053238601764864,196,58,73'
p1
.S'1292984433838071808,189,189,220'
p1
.S'1292998380045459456,190,6,7'
p1
.S'1293057097894125568,194,6,7'
p1
.S'1293051882621005824,182,163,164'
p1
.S'1292982014194118656,195,16,17'
p1
.S'1293051503174889472,195,195,208'
p1
.S'1293040077882179584,195,3,4'
p1
.S'1293016852339240960,196,10,11'
p1
.S'1293067698959507456,195,63,65'
p1
.S'1293034122800963584,191,8,9'
p1
.S'1293014886187991040,196,25,26'
p1
.S'1293011393620111360,196,78,82'
p1
.S'1293009812979941376,196,2,3'
p1
.S'1293031862738042880,194,1,2'
p1
.S'1293086416234217472,181,5,6'
p1
.S'1293010770208391168,196,72,74'
p1
.S'1292984080106934272,192,100,103'
p1
.S'1293017497037148160,193,9,11'
p1
.S'1292980625800101888,194,185,487'
p1
.S'1293012004126470144,194,166,227'
p1
.S'1293110802660098048,195,0,1'
p1
.S'1293006132293603328,181,106,138'
p1
.S'1293078279309623296,172,16,17'
p1
.S'1293053324437942272,181,119,123'
p1
.S'1292987142100099072,196,94,106'
p1
.S'1293048182858997760,196,140,141'
p1
.S'1293091834771685376,194,5,6'
p1
.S'1293006062366101504,139,47,63'
p1
.S'1293086062285045760,194,0,1'
p1
.S'1293131355445772288,177,66,67'
p1
.S'1293029986017873920,196,37,42'
p1
.S'1293030299059539968,194,194,195'
p1
.S'1293067227121471488,195,1,2'
p1
.S'1293133434965127168,194,135,141'
p1
.S'1292995965212889088,161,68,100'
p1
.S'1292969177266929664,176,34,46'
p1
.S'1293073162904420352,196,109,111'
p1
.S'1292987661933522944,196,91,92'
p1
.S'1293026742495277056,196,20,21'
p1
.S'1293061694310244352,176,105,144'
p1
.S'1292997057287770112,174,127,133'
p1
.S'1293105283496931328,196,10,11'
p1
.S'1293011962216833024,196,174,189'
p1
.S'1293058164224618496,195,4,5'
p1
.S'1292984787992502272,191,22,23'
p1
.S'1293002422020694016,196,75,76'
p1
.S'1293037151243694080,181,13,14'
p1
.S'1292987373864800256,163,5,6'
p1
.S'1293002036392194048,196,13,15'
p1
.S'1293011217597992960,195,41,43'
p1
.S'1293003342750294016,185,47,48'
p1
.S'1292981716046503936,191,149,150'
p1
.S'1293005309597851648,145,20,21'
p1
.S'1293054262536024064,178,93,94'
p1
.S'1292992394412920832,195,95,98'
p1
.S'1292971387174170624,189,157,256'
p1
.S'1293062281626038272,192,20,22'
p1
.S'1293052196761559040,195,30,32'
p1
.S'1293016382786740224,196,0,1'
p1
.S'1292972692261490688,182,75,99'
p1
.S'1293014845150601216,193,59,90'
p1
.S'1293008045835800576,195,35,37'
p1
.S'1283774260271620096,156,50,93'
p1
.S'1283839263959613440,195,1,2'
p1
.S'1283774181003153408,196,37,38'
p1
.S'1283826521509195776,159,9,10'
p1
.S'1283696495208087552,118,9,10'
p1
.S'1283688074890940416,195,42,43'
p1
.S'1283703570906431488,194,48,61'
p1
.S'1283699670589550592,181,55,126'
p1
.S'1283861163091931136,152,103,106'
p1
.S'1283684460101066752,196,5,6'
p1
.S'1283810851199537152,196,0,1'
p1
.S'1283832000973058048,195,157,160'
p1
.S'1283854202196099072,180,20,21'
p1
.S'1283682101585498112,193,5,6'
p1
.S'1283696143573872640,194,5,7'
p1
.S'1283690365630730240,195,30,36'
p1
.S'1283689596852793344,195,0,1'
p1
.S'1283832895424892928,196,3,4'
p1
.S'1283688592606228480,194,45,47'
p1
.S'1283816408576585728,195,28,30'
p1
.S'1283761850806665216,196,60,61'
p1
.S'1283848644235558912,160,0,1'
p1
.S'1283841112062480384,195,7,8'
p1
.S'1283805919947980800,193,13,14'
p1
.S'1283693988704309248,196,6,7'
p1
.S'1283841854198431744,158,8,9'
p1
.S'1283701369882185728,196,45,46'
p1
.S'1283686424331841536,159,12,14'
p1
.S'1283736234929643520,196,2,3'
p1
.S'1283819349886611456,181,0,1'
p1
.S'1283685913700044800,170,123,240'
p1
.S'1283725370772156416,193,1,2'
p1
.S'1283821162220097536,196,80,105'
p1
.S'1283843363996848128,172,0,1'
p1
.S'1283705426587889664,133,87,88'
p1
.S'1283787553484820480,195,39,40'
p1
.S'1283827404200189952,163,13,14'
p1
.S'1283798155087241216,183,7,8'
p1
.S'1283850313681584128,195,29,31'
p1
.S'1283851181281988608,183,22,23'
p1
.S'1283817744814796800,195,1,2'
p1
.S'1283702116707864576,196,0,1'
p1
.S'1283858192018960384,92,84,146'
p1
.S'1283856886248239104,189,41,43'
p1
.S'1283688061070712832,170,115,116'
p1
.S'1283812083464593408,195,15,17'
p1
.S'1283701487163387904,194,0,1'
p1
.S'1283816990775312384,195,9,10'
p1
.S'1283685981740503040,196,57,58'
p1
.S'1283685703888596992,190,17,25'
p1
.S'1283830479825063936,196,5,6'
p1
.S'1283795598877294592,180,178,196'
p1
.S'1283805413954969600,195,82,106'
p1
.S'1283805239212167168,194,26,27'
p1
.S'1283844643486134272,195,14,16'
p1
.S'1283841889900109824,192,5,6'
p1
.S'1283825358856413184,193,85,93'
p1
.S'1283859764484710400,119,119,120'
p1
.S'1283805677231534080,195,12,13'
p1
.S'1283860181910171648,196,1,2'
p1
.S'1283692783911743488,164,0,1'
p1
.S'1283688304751054848,192,0,1'
p1
.S'1283821926070255616,192,175,182'
p1
.S'1283814635602059264,192,169,213'
p1
.S'1283828156708667392,170,86,99'
p1
.S'1283694421531348992,195,6,7'
p1
.S'1283831420452257792,196,8,9'
p1
.S'1283824496788611072,196,26,29'
p1
.S'1283808995496579072,193,30,34'
p1
.S'1283814495340421120,193,69,71'
p1
.S'1283862843451924480,192,7,8'
p1
.S'1283682568533168128,195,9,10'
p1
.S'1283806076387078144,187,35,38'
p1
.S'1283835085753397248,184,3,4'
p1
.S'1283792729377800192,195,190,360'
p1
.S'1283708661063364608,195,0,1'
p1
.S'1283689505139953664,60,32,33'
p1
.S'1283740144553377792,158,4,5'
p1
.S'1283805414785495040,186,92,142'
p1
.S'1283847006502703104,195,11,12'
p1
.S'1283845321574776832,195,45,60'
p1
.S'1283690544832884736,196,66,93'
p1
.S'1283816037191929856,187,4,5'
p1
.S'1283852642556289024,194,13,14'
p1
.S'1283685921858211840,157,1,2'
p1
.S'1283856821085765632,171,0,1'
p1
.S'1283824288176513024,195,1,2'
p1
.S'1283847961596067840,156,2,3'
p1
.S'1283838093090283520,177,2,3'
p1
.S'1283695355162656768,196,105,111'
p1
.S'1283711658132672512,173,3,4'
p1
.S'1283729491210153984,195,19,21'
p1
.S'1289399740169326592,196,0,1'
p1
.S'1289410013940883456,195,11,12'
p1
.S'1289389916337434624,188,111,121'
p1
.S'1289401424425447424,195,19,21'
p1
.S'1289406537466843136,161,3,4'
p1
.S'1289426654174875648,194,53,127'
p1
.S'1289413371824930816,196,9,10'
p1
.S'1289361772284882944,185,52,54'
p1
.S'1289414278784634880,196,5,6'
p1
.S'1289395934949945344,196,127,134'
p1
.S'1289418976757170176,157,3,4'
p1
.S'1289452043710660608,194,0,1'
p1
.S'1289407978298073088,196,153,168'
p1
.S'1289401592273313792,195,16,17'
p1
.S'1289412439380840448,186,51,53'
p1
.S'1289435392021602304,196,3,4'
p1
.S'1289386665139703808,196,113,153'
p1
.S'1289392106422620160,196,4,5'
p1
.S'1289408711202349056,196,69,80'
p1
.S'1289369657983537152,196,5,6'
p1
.S'1289338330504699904,195,6,7'
p1
.S'1289394129520025600,178,4,5'
p1
.S'1289413355475472384,195,91,92'
p1
.S'1289389433598218240,195,66,69'
p1
.S'1289400119825195008,171,36,38'
p1
.S'1289458102579732480,196,30,32'
p1
.S'1289383564668014592,195,10,11'
p1
.S'1289382580566855680,194,175,243'
p1
.S'1289363929197576192,196,0,1'
p1
.S'1289394453333016576,195,2,3'
p1
.S'1289383130519752704,194,0,1'
p1
.S'1289369411874394112,195,103,173'
p1
.S'1289398528619241472,189,16,17'
p1
.S'1289374007057117184,195,123,208'
p1
.S'1289419459232468992,195,56,57'
p1
.S'1289395473492647936,196,59,95'
p1
.S'1289435316608004096,195,39,41'
p1
.S'1289383643886018560,190,1,2'
p1
.S'1289394430952026112,195,44,45'
p1
.S'1289407302843187200,195,37,41'
p1
.S'1289397833748942848,195,4,5'
p1
.S'1289390220587991040,187,153,218'
p1
.S'1289384272935186432,187,139,140'
p1
.S'1289387431497445376,190,9,10'
p1
.S'1289379220099063808,194,65,66'
p1
.S'1289397361306734592,196,84,90'
p1
.S'1289393672806645760,188,23,26'
p1
.S'1289425488284188672,195,109,161'
p1
.S'1289389113082003456,195,81,88'
p1
.S'1289391777702649856,195,138,165'
p1
.S'1289419230911320064,188,70,72'
p1
.S'1289435826199130112,145,115,117'
p1
.S'1289468974542815232,196,150,151'
p1
.S'1289401829746167808,195,53,54'
p1
.S'1289378371343945728,194,0,1'
p1
.S'1289398742168055808,194,56,63'
p1
.S'1289427598039990272,195,7,8'
p1
.S'1289348393868918784,195,1,2'
p1
.S'1289419323177398272,196,109,111'
p1
.S'1289376509572063232,196,148,150'
p1
.S'1289451932875952128,196,3,4'
p1
.S'1289380681872457728,181,49,50'
p1
.S'1289393608738631680,184,4,5'
p1
.S'1289371622981128192,192,20,21'
p1
.S'1289345731043467264,196,78,86'
p1
.S'1289463797933047808,195,64,70'
p1
.S'1289405115266228224,195,31,32'
p1
.S'1289402911977574400,196,7,8'
p1
.S'1289364490278027264,175,3,4'
p1
.S'1289364277559738368,195,59,63'
p1
.S'1289403656504274944,195,30,37'
p1
.S'1289373311402450944,196,24,27'
p1
.S'1289409709195116544,194,0,1'
p1
.S'1289367161890091008,168,16,17'
p1
.S'1289376165324292096,193,0,1'
p1
.S'1289386901937205248,194,161,169'
p1
.S'1289368930456170496,181,85,86'
p1
.S'1289385015243046912,193,9,10'
p1
.S'1289391340517740544,196,7,8'
p1
.S'1289381390496227328,171,30,31'
p1
.S'1289389609889021952,196,75,85'
p1
.S'1289412937357967360,196,43,45'
p1
.S'1289406149262786560,195,37,38'
p1
.S'1289367939455340544,196,77,81'
p1
.S'1289389539399516160,172,5,6'
p1
.S'1289472688922005504,195,40,41'
p1
.S'1289431987060400128,195,185,214'
p1
.S'1289436970959138816,144,9,10'
p1
.S'1289475816950218752,196,145,150'
p1
.S'1283682568533168128,195,9,10'
p1
.S'1283705426587889664,133,87,88'
p1
.S'1283610578333650944,188,28,29'
p1
.S'1283641034077044736,192,42,135'
p1
.S'1283608232811773952,195,87,89'
p1
.S'1283608030243930112,195,110,112'
p1
.S'1283598439707480064,196,19,20'
p1
.S'1283628453660405760,185,6,7'
p1
.S'1283609428524208128,191,13,14'
p1
.S'1283601506670616576,195,136,137'
p1
.S'1283620080978427904,196,6,7'
p1
.S'1283663695893188608,137,0,1'
p1
.S'1283630682823897088,181,19,27'
p1
.S'1283651464996487168,195,178,179'
p1
.S'1283646778075672576,176,0,1'
p1
.S'1283654749329739776,196,103,104'
p1
.S'1283604550586155008,194,144,145'
p1
.S'1283607819085869056,193,8,11'
p1
.S'1283603552417521664,194,59,71'
p1
.S'1283690544832884736,196,66,93'
p1
.S'1283615770781839360,196,50,58'
p1
.S'1283646987287371776,196,150,247'
p1
.S'1283616099686133760,177,60,69'
p1
.S'1283627964961316864,190,74,121'
p1
.S'1283602978066345984,195,81,84'
p1
.S'1283677006865272832,188,50,67'
p1
.S'1283625839304589312,196,23,24'
p1
.S'1283613752163708928,188,68,69'
p1
.S'1283628983359524864,196,144,149'
p1
.S'1283623873078059008,193,13,14'
p1
.S'1283668417232437248,196,39,57'
p1
.S'1283633231136194560,158,83,84'
p1
.S'1283689505139953664,60,32,33'
p1
.S'1283635812772327424,196,43,52'
p1
.S'1283598036287070208,196,139,140'
p1
.S'1283649999498567680,193,0,1'
p1
.S'1283761850806665216,196,60,61'
p1
.S'1283774260271620096,156,50,93'
p1
.S'1283622122581065728,195,195,1479'
p1
.S'1283645183179255808,142,10,11'
p1
.S'1283638465044877312,166,53,69'
p1
.S'1283740144553377792,158,4,5'
p1
.S'1283659789515759616,196,60,64'
p1
.S'1283703431193907200,191,57,61'
p1
.S'1283639468657950720,194,0,1'
p1
.S'1283653245650477056,180,41,56'
p1
.S'1283617071015612416,194,41,43'
p1
.S'1283612481725911040,194,77,78'
p1
.S'1283649854413103104,196,0,1'
p1
.S'1283614092892446720,194,137,169'
p1
.S'1283672626509901824,177,10,13'
p1
.S'1283648551305564160,192,21,55'
p1
.S'1283662059883659264,195,0,1'
p1
.S'1283675519099224064,194,29,30'
p1
.S'1283633856612311040,196,6,7'
p1
.S'1283635188093554688,194,31,33'
p1
.S'1283659323490684928,195,83,86'
p1
.S'1283606588711927808,195,21,23'
p1
.S'1283649593862987776,186,22,29'
p1
.S'1283622231448219648,145,5,6'
p1
.S'1283665904768643072,195,17,23'
p1
.S'1283619447772712960,187,154,223'
p1
.S'1283629768788905984,194,115,121'
p1
.S'1283601055351001088,192,101,132'
p1
.S'1283601107318456320,196,171,212'
p1
.S'1283619747795709952,158,3,4'
p1
.S'1283640984227725312,195,43,45'
p1
.S'1283626040488534016,196,19,20'
p1
.S'1283598811406999552,196,111,114'
p1
.S'1283679977397014528,196,32,33'
p1
.S'1283667209222340608,75,1,2'
p1
.S'1283605147092140032,150,119,120'
p1
.S'1283699670589550592,181,55,126'
p1
.S'1283666124126740480,195,0,1'
p1
.S'1283625901275713536,174,105,106'
p1
.S'1283648693190946816,131,3,4'
p1
.S'1283618170934554624,194,44,48'
p1
.S'1283625098535940096,131,0,1'
p1
.S'1283688592606228480,194,45,47'
p1
.S'1283450905274028032,195,42,43'
p1
.S'1283312148315267072,196,2,3'
p1
.S'1283327791760379904,195,92,188'
p1
.S'1283333961136885760,147,0,1'
p1
.S'1283445116585082880,192,29,30'
p1
.S'1283310370307915776,194,0,1'
p1
.S'1283450646464958464,195,1,2'
p1
.S'1283320515935068160,178,38,39'
p1
.S'1283325570390118400,187,88,92'
p1
.S'1283449194899705856,196,196,1242'
p1
.S'1283466874726309888,182,75,76'
p1
.S'1283325623028674560,162,108,115'
p1
.S'1283306781632036864,191,111,143'
p1
.S'1283469736432537600,195,0,1'
p1
.S'1283308447882170368,183,24,41'
p1
.S'1283322202322264064,169,11,12'
p1
.S'1283443504949420032,91,53,54'
p1
.S'1283323272087445504,193,60,63'
p1
.S'1283376860625293312,189,10,11'
p1
.S'1283467265190617088,196,6,7'
p1
.S'1283321201879904256,196,2,3'
p1
.S'1283310034641629184,169,20,21'
p1
.S'1283446364919476224,194,43,44'
p1
.S'1283439280949170176,195,0,1'
p1
.S'1283474104283983872,195,83,85'
p1
.S'1283331482210934784,196,1,2'
p1
.S'1283453867056824320,151,1,2'
p1
.S'1283477135650361344,195,16,19'
p1
.S'1283441372418228224,186,168,224'
p1
.S'1283321122968469504,196,22,23'
p1
.S'1283307365768761344,194,160,185'
p1
.S'1283307556282298368,183,139,172'
p1
.S'1283425609024462848,153,0,1'
p1
.S'1283466031000076288,195,1,2'
p1
.S'1283334777424310272,188,2,4'
p1
.S'1283340091129028608,196,3,4'
p1
.S'1283464930754011136,195,10,13'
p1
.S'1283447439042785280,187,21,22'
p1
.S'1283333514053541888,189,172,177'
p1
.S'1283475053967007744,195,121,148'
p1
.S'1283304296984817664,184,36,51'
p1
.S'1283331523654885376,196,124,125'
p1
.S'1283309410617524224,195,4,5'
p1
.S'1283309197672751104,137,6,7'
p1
.S'1283438617410605056,195,2,3'
p1
.S'1283314163028230144,195,156,168'
p1
.S'1283474701037494272,136,79,80'
p1
.S'1283324704182480896,382,44,60'
p1
.S'1283305340611825664,193,92,101'
p1
.S'1283377692003528704,184,4,5'
p1
.S'1283472957372760064,184,121,158'
p1
.S'1283354506520145920,195,23,24'
p1
.S'1283460346673565696,193,0,1'
p1
.S'1283454527751794688,195,3,5'
p1
.S'1283321938986795008,195,63,81'
p1
.S'1283475874443837440,163,3,4'
p1
.S'1283307011492700160,196,101,102'
p1
.S'1283452737434308608,175,31,32'
p1
.S'1289468974542815232,196,150,151'
p1
.S'1289425488284188672,195,109,161'
p1
.S'1289452948593827840,187,42,43'
p1
.S'1289478048227405824,194,5,6'
p1
.S'1289506131513118720,195,0,1'
p1
.S'1289418976757170176,157,3,4'
p1
.S'1289439473138089984,195,1,2'
p1
.S'1289435316608004096,195,39,41'
p1
.S'1289454364150407168,192,94,96'
p1
.S'1289457977702907904,193,15,16'
p1
.S'1289443689768341504,176,8,9'
p1
.S'1289436970959138816,144,9,10'
p1
.S'1289435392021602304,196,3,4'
p1
.S'1289419459232468992,195,56,57'
p1
.S'1289462939031613440,195,170,191'
p1
.S'1289511193744162816,196,3,4'
p1
.S'1289451932875952128,196,3,4'
p1
.S'1289440997478187008,180,157,158'
p1
.S'1289439932175536128,150,126,222'
p1
.S'1289450981578706944,189,0,1'
p1
.S'1289476989169872896,193,0,1'
p1
.S'1289428989835997184,195,75,89'
p1
.S'1289431086107344896,185,55,70'
p1
.S'1289462118533558272,195,133,139'
p1
.S'1289482528545243136,195,8,9'
p1
.S'1289426654174875648,194,53,127'
p1
.S'1289472688922005504,195,40,41'
p1
.S'1289461879709835264,188,99,106'
p1
.S'1289469779199016960,181,74,75'
p1
.S'1289424666792230912,194,79,84'
p1
.S'1289467354358685696,194,5,6'
p1
.S'1289477926819082240,195,0,1'
p1
.S'1289452043710660608,194,0,1'
p1
.S'1289458102579732480,196,30,32'
p1
.S'1289542567272378368,139,11,12'
p1
.S'1289419230911320064,188,70,72'
p1
.S'1289479016625147904,196,147,150'
p1
.S'1289459222085611520,194,48,49'
p1
.S'1289452602199023616,195,14,15'
p1
.S'1289523441304829952,196,38,59'
p1
.S'1289478433147392000,193,64,65'
p1
.S'1289528328423907328,196,154,158'
p1
.S'1289441979494723584,104,3,4'
p1
.S'1289437852505120768,193,2,3'
p1
.S'1289423352154537984,195,114,116'
p1
.S'1289475816950218752,196,145,150'
p1
.S'1289425537491750912,182,64,65'
p1
.S'1289485339710648320,73,23,24'
p1
.S'1289437056174579712,194,33,54'
p1
.S'1289463797933047808,195,64,70'
p1
.S'1289507791396032512,90,1,2'
p1
.S'1289431987060400128,195,185,214'
p1
.S'1289505947416510464,195,39,194'
p1
.S'1289445325160984576,182,172,173'
p1
.S'1289507588152922112,189,2,3'
p1
.S'1289456913595396096,191,0,1'
p1
.S'1289433121653440512,175,0,1'
p1
.S'1289423516449591296,193,136,171'
p1
.S'1289449927457828864,171,1,2'
p1
.S'1289441390635413504,188,2,4'
p1
.S'1289457206852747264,195,6,7'
p1
.S'1289427598039990272,195,7,8'
p1
.S'1289433740447207424,193,152,222'
p1
.S'1289419323177398272,196,109,111'
p1
.S'1289428811297255424,195,1,2'
p1
.S'1289460973371269120,194,0,1'
p1
.S'1289446192912240640,190,37,86'
p1
.S'1289431947000602624,193,0,1'
p1
.S'1289466494480207872,195,53,55'
p1
.S'1289543454585950208,196,49,51'
p1
.S'1289493565801742336,195,34,35'
p1
.S'1289596308432527360,195,195,196'
p1
.S'1289435826199130112,145,115,117'
p1
.S'1289478379636420608,162,65,73'
p1
.S'1289473077578821632,183,0,1'
p1
.S'1289436878596104192,192,3,4'
p1
.S'1289442693151416320,193,6,7'
p1
.S'1289503760158187520,181,3,4'
p1
.S'1289590587393236992,195,23,29'
p1
.S'1289478671480123392,195,42,43'
p1
.S'1289475689082507264,196,70,158'
p1
.S'1289442724071751680,180,117,158'
p1
.S'1289466002538708992,180,0,1'
p1
.S'1289429343986159616,176,43,52'
p1
.S'1283506902894370816,141,0,1'
p1
.S'1283454527751794688,195,3,5'
p1
.S'1283524571122872320,175,74,83'
p1
.S'1283529770293972992,185,157,209'
p1
.S'1283522883687231488,195,54,55'
p1
.S'1283546430988038144,177,7,8'
p1
.S'1283516337125519360,138,20,22'
p1
.S'1283490407782780928,195,36,37'
p1
.S'1283457782544318464,189,2,3'
p1
.S'1283449194899705856,196,196,1242'
p1
.S'1283542228995915776,195,13,14'
p1
.S'1283519258906738688,91,0,1'
p1
.S'1283559061559902208,144,2,3'
p1
.S'1283461299787182080,195,0,1'
p1
.S'1283492302912155648,196,35,46'
p1
.S'1283475874443837440,163,3,4'
p1
.S'1283484673611644928,180,16,17'
p1
.S'1282177696088113152,194,156,167'
p1
.S'1282206798807785472,179,0,1'
p1
.S'1282232792566136832,195,51,58'
p1
.S'1282197285899538432,195,109,136'
p1
.S'1282221453579837440,195,195,201'
p1
.S'1282204424735019008,195,0,1'
p1
.S'1282192286939570176,192,32,33'
p1
.S'1282228275053752320,189,23,24'
p1
.S'1282203221087387648,195,48,96'
p1
.S'1282247971781935104,190,36,37'
p1
.S'1282204749714096128,195,0,1'
p1
.S'1282192887765164032,189,0,1'
p1
.S'1282213141946007552,195,69,125'
p1
.S'1282244003496370176,191,17,18'
p1
.S'1282236184776859648,186,153,154'
p1
.S'1282247066412257280,170,109,154'
p1
.S'1293357886202126336,193,66,72'
p1
.S'1293364858703728640,195,7,8'
p1
.S'1293383814781018112,193,0,1'
p1
.S'1293397458008879104,196,178,180'
p1
.S'1293416993227456512,195,5,6'
p1
.S'1293395550615523328,196,106,126'
p1
.S'1293397060070133760,196,6,7'
p1
.S'1293429011569065984,195,15,18'
p1
.S'1293371688998035456,156,27,32'
p1
.S'1293358608284901376,196,20,21'
p1
.S'1293386679503486976,196,19,21'
p1
.S'1293396805521944576,194,156,318'
p1
.S'1293352317013393408,174,3,4'
p1
.S'1293366860666064896,194,76,123'
p1
.S'1293456786245976064,136,5,6'
p1
.S'1293400904376213504,180,0,1'
p1
.S'1293345830643937280,183,80,81'
p1
.S'1293387283088728064,194,27,28'
p1
.S'1293367057676709888,195,71,81'
p1
.S'1293395933991993344,187,0,1'
p1
.S'1293408348951482368,193,51,57'
p1
.S'1293377203085664256,189,26,29'
p1
.S'1293388461096751104,196,17,20'
p1
.S'1293490061840678912,192,82,83'
p1
.S'1293400475881955328,195,9,10'
p1
.S'1293429157979922432,195,146,165'
p1
.S'1293410887834935296,195,129,134'
p1
.S'1293413368736223232,195,34,37'
p1
.S'1293413699914227712,195,3,4'
p1
.S'1293394964964855808,196,10,11'
p1
.S'1293361846484873216,190,0,1'
p1
.S'1293366492062175232,181,2,3'
p1
.S'1293355813041287168,195,6,10'
p1
.S'1293345808191836160,195,30,38'
p1
.S'1293367758150643712,196,160,161'
p1
.S'1293421112444813312,196,53,58'
p1
.S'1293318857095819264,195,93,102'
p1
.S'1293400176530464768,195,62,65'
p1
.S'1293451273685049344,196,9,10'
p1
.S'1293466007826206720,196,9,11'
p1
.S'1293401502798712832,195,33,34'
p1
.S'1293383176441733120,196,87,91'
p1
.S'1293468968190967809,49,1,2'
p1
.S'1293371821646815232,195,172,220'
p1
.S'1293388885145079808,132,72,75'
p1
.S'1293402449348128768,196,52,56'
p1
.S'1293332293934850048,196,139,145'
p1
.S'1293382165274521600,133,68,69'
p1
.S'1293377716174905344,196,8,9'
p1
.S'1293333580025602048,170,24,28'
p1
.S'1293342556457205760,147,0,1'
p1
.S'1293371718060355584,195,10,11'
p1
.S'1293379867622199296,195,18,19'
p1
.S'1293378036699635712,196,32,33'
p1
.S'1293379352058368000,191,41,42'
p1
.S'1293375741089767424,194,1,2'
p1
.S'1293360416432758784,164,1,2'
p1
.S'1293429645978578944,176,7,8'
p1
.S'1293424161167114240,196,0,1'
p1
.S'1293440006815465472,195,24,26'
p1
.S'1293352834783649792,141,4,5'
p1
.S'1293362032413970432,195,88,108'
p1
.S'1293375922887663616,194,194,354'
p1
.S'1293383087140577280,180,29,30'
p1
.S'1293363494158323712,174,15,16'
p1
.S'1293388558924943360,196,23,26'
p1
.S'1293376004898922496,195,5,7'
p1
.S'1293375005194874880,196,173,224'
p1
.S'1293432036505317376,149,52,56'
p1
.S'1293375399652409344,192,11,12'
p1
.S'1293336506483855360,181,40,41'
p1
.S'1293365966411079680,195,53,56'
p1
.S'1293352321056919552,196,17,18'
p1
.S'1293364917323329536,196,67,68'
p1
.S'1293360124513361920,176,71,81'
p1
.S'1293386191634341888,195,3,4'
p1
.S'1293357066890719232,196,24,26'
p1
.S'1293352266933407744,196,55,56'
p1
.S'1293384750446350336,158,0,1'
p1
.S'1293352145978335232,196,162,163'
p1
.S'1293345861065191424,195,20,21'
p1
.S'1293382774698672128,195,52,53'
p1
.S'1293429134168666112,171,171,173'
p1
.S'1293397172972617728,194,18,19'
p1
.S'1293379984161124352,196,56,58'
p1
.S'1293454616905900032,188,102,106'
p1
.S'1293368550127542272,195,57,77'
p1
.S'1293386940305072128,195,89,90'
p1
.S'1293390008103120896,195,174,275'
p1
.S'1293355749321408512,189,80,81'
p1
.S'1293420008394928128,196,36,40'
p1
.S'1293482471991762944,196,0,1'
p1
.S'1293388593435451392,196,78,83'
p1
.S'1293482132794224640,191,0,1'
p1
.S'1288588437896986624,196,10,11'
p1
.S'1288638998713339904,196,10,11'
p1
.S'1288625196089413632,191,102,112'
p1
.S'1288636851217231872,177,78,91'
p1
.S'1288542157287923712,194,7,8'
p1
.S'1288582679419666432,143,0,1'
p1
.S'1288632274509856768,185,72,77'
p1
.S'1288524665664708608,194,0,1'
p1
.S'1288569240961560576,196,10,12'
p1
.S'1288643259018739712,182,57,86'
p1
.S'1288619608122757120,196,121,125'
p1
.S'1288525691519967232,156,1,2'
p1
.S'1288627891735072768,195,157,378'
p1
.S'1288576719934418944,196,145,186'
p1
.S'1288609372305588224,195,187,206'
p1
.S'1288583836841951232,186,162,163'
p1
.S'1288512270695108608,186,18,19'
p1
.S'1288644688915668992,127,127,130'
p1
.S'1288490663750660096,196,0,1'
p1
.S'1288624838839787520,196,194,195'
p1
.S'1288533143669850112,195,1,2'
p1
.S'1288574994385182720,196,1,2'
p1
.S'1288631403369607168,195,104,114'
p1
.S'1288551327907176448,194,67,77'
p1
.S'1288572938378944512,195,133,156'
p1
.S'1288505429781291008,169,23,26'
p1
.S'1288641123225063424,195,19,20'
p1
.S'1288647201853411328,194,13,14'
p1
.S'1288503803834408960,195,7,8'
p1
.S'1288646364988866560,196,90,93'
p1
.S'1288589637228912640,195,1,2'
p1
.S'1288598818929127424,184,11,12'
p1
.S'1288469020555038720,161,146,157'
p1
.S'1288584265453953024,169,42,43'
p1
.S'1288554443280945152,194,5,6'
p1
.S'1288642576727310336,189,82,118'
p1
.S'1288638733737992192,196,97,98'
p1
.S'1288642896861794304,195,8,9'
p1
.S'1288547543684628480,162,8,9'
p1
.S'1288626164210053120,176,61,65'
p1
.S'1288550849894928384,192,0,1'
p1
.S'1288534608308477952,188,3,4'
p1
.S'1288603217294655488,195,36,40'
p1
.S'1288646429836980224,196,34,36'
p1
.S'1288646429069537280,194,67,68'
p1
.S'1288594389224378368,195,25,27'
p1
.S'1288532155756363776,189,0,1'
p1
.S'1288608902380175360,146,37,38'
p1
.S'1288605581254746112,195,113,114'
p1
.S'1288595699097116672,196,1,2'
p1
.S'1288646558363058176,90,0,1'
p1
.S'1288592096252600320,195,51,52'
p1
.S'1288572205667921920,196,1,2'
p1
.S'1288630840204902400,195,1,2'
p1
.S'1288535515221917696,195,60,83'
p1
.S'1288564547749597184,196,33,35'
p1
.S'1288510024448434176,195,8,9'
p1
.S'1288563599220391936,181,11,12'
p1
.S'1288635981360676864,195,68,69'
p1
.S'1288556887570792448,187,0,1'
p1
.S'1288610714705600512,93,2,3'
p1
.S'1288581939502649344,181,2,3'
p1
.S'1288569131066716160,184,57,105'
p1
.S'1288532459973455873,183,0,1'
p1
.S'1288633192731074560,195,39,41'
p1
.S'1288564576811880448,113,2,3'
p1
.S'1288590149655367680,194,2,3'
p1
.S'1288588837673115648,157,3,4'
p1
.S'1288558749539614720,196,66,67'
p1
.S'1288640912183934976,150,8,9'
p1
.S'1288643924906471424,97,2,3'
p1
.S'1288641810293719040,129,1,2'
p1
.S'1288631772988731392,191,164,165'
p1
.S'1288543569350959104,189,13,14'
p1
.S'1288599690044379136,171,95,99'
p1
.S'1288612547528130560,182,133,134'
p1
.S'1288635219603566592,186,6,7'
p1
.S'1288644608577994752,162,11,12'
p1
.S'1288596831345201152,176,63,125'
p1
.S'1288640055304761344,185,4,5'
p1
.S'1288601516462260224,195,21,23'
p1
.S'1288647493370134528,181,26,27'
p1
.S'1288561466915880960,195,4,6'
p1
.S'1288534164098129920,193,64,69'
p1
.S'1288548470499721216,175,20,21'
p1
.S'1288628923764441088,195,96,104'
p1
.S'1288623951597461504,194,191,192'
p1
.S'1288559618263502848,193,19,20'
p1
.S'1288613135796109312,147,29,30'
p1
.S'1288628356719529984,178,69,91'
p1
.S'1288607340756623360,195,13,14'
p1
.S'1288566176053682176,195,48,52'
p1
.S'1288588628502921216,196,95,96'
p1
.S'1288611159431413760,180,0,1'
p1
.S'1288634668329422848,196,89,91'
p1
.S'1283518368997339136,147,19,20'
p1
.S'1283454973191577600,188,31,33'
p1
.S'1283546758210818048,143,0,1'
p1
.S'1283488400103919616,191,56,61'
p1
.S'1283466874726309888,182,75,76'
p1
.S'1283518396880842752,195,11,12'
p1
.S'1283524509718237184,180,180,181'
p1
.S'1283516869684473856,170,169,305'
p1
.S'1283524884202778624,166,112,128'
p1
.S'1283527688845676544,182,137,139'
p1
.S'1283506442485547008,192,126,166'
p1
.S'1283493663246635008,194,0,1'
p1
.S'1283529770293972992,185,157,209'
p1
.S'1283492302912155648,196,35,46'
p1
.S'1283504447095992320,195,36,37'
p1
.S'1283537915242254336,39,2,3'
p1
.S'1283438869576368128,162,2,3'
p1
.S'1283463475653939200,196,7,8'
p1
.S'1283506938671771648,182,20,22'
p1
.S'1283422662479306752,169,18,19'
p1
.S'1283454527751794688,195,3,5'
p1
.S'1283376860625293312,189,10,11'
p1
.S'1283438658619867136,191,46,55'
p1
.S'1283477135650361344,195,16,19'
p1
.S'1283515749008564224,196,132,133'
p1
.S'1283457075602944000,195,1,2'
p1
.S'1283481657982267392,166,12,13'
p1
.S'1283461299787182080,195,0,1'
p1
.S'1283543478278168576,196,81,149'
p1
.S'1283493343988752384,194,101,302'
p1
.S'1283546430988038144,177,7,8'
p1
.S'1283528515249188864,195,0,1'
p1
.S'1283483136068091904,188,60,61'
p1
.S'1283490720296443904,194,11,13'
p1
.S'1283549303398862848,185,59,63'
p1
.S'1283470431201980416,117,108,161'
p1
.S'1283551907935576064,195,0,1'
p1
.S'1283446364919476224,194,43,44'
p1
.S'1283500914200186880,195,64,65'
p1
.S'1283501184208052224,195,38,43'
p1
.S'1283525215837741056,179,178,180'
p1
.S'1283452737434308608,175,31,32'
p1
.S'1283548677339774976,186,7,8'
p1
.S'1283506902894370816,141,0,1'
p1
.S'1283511952223666176,196,186,189'
p1
.S'1283486348967624704,195,135,173'
p1
.S'1283457782544318464,189,2,3'
p1
.S'1283542228995915776,195,13,14'
p1
.S'1283475053967007744,195,121,148'
p1
.S'1283516426078310400,196,26,28'
p1
.S'1283450856477442048,194,0,1'
p1
.S'1283434481290227712,195,86,108'
p1
.S'1283453467738431488,195,0,1'
p1
.S'1283503352135221248,157,8,9'
p1
.S'1283450646464958464,195,1,2'
p1
.S'1283539828193083392,79,2,3'
p1
.S'1283516337125519360,138,20,22'
p1
.S'1283470845129719808,196,17,18'
p1
.S'1283519258906738688,91,0,1'
p1
.S'1283548914851123200,195,2,3'
p1
.S'1283473738876489728,195,37,38'
p1
.S'1283518557011271680,187,58,61'
p1
.S'1283519060898181120,195,59,60'
p1
.S'1283508356509822976,190,32,35'
p1
.S'1283520552166150144,193,52,56'
p1
.S'1283445116585082880,192,29,30'
p1
.S'1283474104283983872,195,83,85'
p1
.S'1283487907046453248,155,85,86'
p1
.S'1283493856364666880,148,0,1'
p1
.S'1283450905274028032,195,42,43'
p1
.S'1283479643701366784,194,194,195'
p1
.S'1283517214393294848,204,145,146'
p1
.S'1283493206302015488,195,37,38'
p1
.S'1283524571122872320,175,74,83'
p1
.S'1283474701037494272,136,79,80'
p1
.S'1283484673611644928,180,16,17'
p1
.S'1283468670370254848,191,4,5'
p1
.S'1283490407782780928,195,36,37'
p1
.S'1283475874443837440,163,3,4'
p1
.S'1283443504949420032,91,53,54'
p1
.S'1283522883687231488,195,54,55'
p1
.S'1283377692003528704,184,4,5'
p1
.S'1283534704033042432,195,0,1'
p1
.S'1283449194899705856,196,196,1242'
p1
.S'1283552644292026368,192,1,2'
p1
.S'1283532333001175040,191,51,52'
p1
.S'1283549460140044288,196,1,2'
p1
.S'1283497660699570176,195,164,168'
p1
.S'1283460346673565696,193,0,1'
p1
.S'1283479159221665792,190,38,39'
p1
.S'1283445588478029824,195,140,143'
p1
.S'1283469736432537600,195,0,1'
p1
.S'1283439280949170176,195,0,1'
p1
.S'1283101459583787008,195,1,2'
p1
.S'1283157231130861568,195,24,32'
p1
.S'1283150272000057344,195,137,141'
p1
.S'1283127856654086144,181,12,13'
p1
.S'1283132441493921792,194,0,1'
p1
.S'1283080245578235904,194,71,73'
p1
.S'1283106022529576960,195,0,1'
p1
.S'1282330699218993152,190,166,230'
p1
.S'1282304860640944128,195,0,1'
p1
.S'1282428762679885824,196,4,5'
p1
.S'1282414443783397376,194,10,11'
p1
.S'1282381790946160640,179,0,1'
p1
.S'1282433945711104000,180,180,670'
p1
.S'1282375360176324608,191,0,1'
p1
.S'1282339238872002560,175,0,1'
p1
.S'1282276701791227904,195,35,36'
p1
.S'1282259259354402816,194,93,98'
p1
.S'1282427752855035904,174,48,57'
p1
.S'1282376334559121408,195,0,1'
p1
.S'1282255825372635136,195,24,25'
p1
.S'1282426190757568512,194,70,108'
p1
.S'1282260495256227840,183,86,87'
p1
.S'1282382992391741440,194,23,24'
p1
.S'1282420590044655616,189,34,35'
p1
.S'1282278484223385600,195,63,66'
p1
.S'1282416254342291456,191,98,107'
p1
.S'1283454527751794688,195,3,5'
p1
.S'1283291830934773760,194,41,48'
p1
.S'1283450905274028032,195,42,43'
p1
.S'1283445116585082880,192,29,30'
p1
.S'1283307011492700160,196,101,102'
p1
.S'1283466874726309888,182,75,76'
p1
.S'1283309059566673920,186,72,75'
p1
.S'1283347632852701184,196,73,74'
p1
.S'1283300791914291200,158,9,10'
p1
.S'1283290250843725824,145,145,151'
p1
.S'1283308447882170368,183,24,41'
p1
.S'1283461299787182080,195,0,1'
p1
.S'1283340091129028608,196,3,4'
p1
.S'1283291953718845440,180,19,20'
p1
.S'1282848935207424000,196,83,84'
p1
.S'1282838500676358144,196,25,31'
p1
.S'1282876484893200384,192,132,169'
p1
.S'1282798592125968384,145,107,108'
p1
.S'1282906540587782144,176,14,15'
p1
.S'1282906731152293888,179,121,130'
p1
.S'1282831602615001088,196,33,49'
p1
.S'1282887638667665408,176,9,10'
p1
.S'1282813743248076800,196,0,1'
p1
.S'1282920665334829056,181,122,131'
p1
.S'1282891577291083776,196,9,10'
p1
.S'1282930955694301184,116,2,3'
p1
.S'1282919167687303168,192,155,158'
p1
.S'1282843004566384640,196,196,197'
p1
.S'1282851578315440128,129,1,2'
p1
.S'1282799489677213696,194,1,2'
p1
.S'1282927218489794560,194,0,1'
p1
.S'1282906742140854272,17,0,1'
p1
.S'1282882213247414272,182,38,40'
p1
.S'1282873826832756736,26,0,1'
p1
.S'1288715788450406400,196,123,170'
p1
.S'1288698756539551744,193,132,135'
p1
.S'1288717972676419584,196,35,36'
p1
.S'1288658772545642496,195,1,2'
p1
.S'1288646364988866560,196,90,93'
p1
.S'1288665768887767040,196,65,68'
p1
.S'1288607340756623360,195,13,14'
p1
.S'1288727047841484800,196,173,179'
p1
.S'1288669049861369856,196,154,172'
p1
.S'1288663713192321024,129,107,172'
p1
.S'1288674464632053760,195,191,212'
p1
.S'1288705705666613248,193,19,20'
p1
.S'1288734118737223680,195,195,197'
p1
.S'1288691487034744832,196,196,220'
p1
.S'1288668348296716288,196,3,4'
p1
.S'1288654099738718208,195,116,189'
p1
.S'1288651493158866944,193,65,74'
p1
.S'1288696586968735744,193,52,55'
p1
.S'1288666510776328192,194,135,136'
p1
.S'1288681376769781760,182,60,63'
p1
.S'1288704422112800768,195,16,17'
p1
.S'1288670172190228480,196,193,197'
p1
.S'1288613135796109312,147,29,30'
p1
.S'1288686800390750208,195,64,112'
p1
.S'1288676467382853632,195,3,4'
p1
.S'1288599690044379136,171,95,99'
p1
.S'1288640055304761344,185,4,5'
p1
.S'1288651235654262784,151,7,8'
p1
.S'1288688404061691904,182,61,64'
p1
.S'1288695291549245440,196,32,33'
p1
.S'1288630840204902400,195,1,2'
p1
.S'1288566176053682176,195,48,52'
p1
.S'1288594389224378368,195,25,27'
p1
.S'1288605581254746112,195,113,114'
p1
.S'1288669215502786560,196,13,15'
p1
.S'1288687467062763520,196,86,88'
p1
.S'1288672331362971648,192,12,15'
p1
.S'1288666236913410048,196,10,11'
p1
.S'1288652095134035968,188,0,1'
p1
.S'1288569131066716160,184,57,105'
p1
.S'1288687188221321216,114,26,27'
p1
.S'1288669085349113856,196,9,10'
p1
.S'1288657794203295744,193,76,77'
p1
.S'1288642896861794304,195,8,9'
p1
.S'1288655624221372416,195,67,75'
p1
.S'1288694878842523648,163,103,104'
p1
.S'1288700641946275840,196,61,80'
p1
.S'1288669426337685504,196,17,19'
p1
.S'1288638733737992192,196,97,98'
p1
.S'1288698788936327168,149,123,128'
p1
.S'1288673288784404480,190,70,71'
p1
.S'1288729738189627392,195,53,55'
p1
.S'1288669033759424512,161,11,13'
p1
.S'1288659393328062464,195,3,4'
p1
.S'1288678364781109248,166,22,23'
p1
.S'1288563599220391936,181,11,12'
p1
.S'1288661730024701952,196,1,2'
p1
.S'1288641810293719040,129,1,2'
p1
.S'1288670666656313344,186,59,60'
p1
.S'1288651961364844544,176,43,52'
p1
.S'1288678772681363456,195,12,13'
p1
.S'1288685402781802496,191,93,105'
p1
.S'1288711717781762048,196,40,44'
p1
.S'1288724433691348992,179,33,35'
p1
.S'1288695237606584320,194,22,23'
p1
.S'1288611159431413760,180,0,1'
p1
.S'1288654839664238592,195,26,27'
p1
.S'1288644608577994752,162,11,12'
p1
.S'1288689009983442944,185,1,2'
p1
.S'1288624838839787520,196,194,195'
p1
.S'1288693003766149120,179,72,87'
p1
.S'1288634668329422848,196,89,91'
p1
.S'1288665811652939776,384,125,128'
p1
.S'1288685292211056640,195,32,33'
p1
.S'1288657502376267776,196,121,146'
p1
.S'1288643924906471424,97,2,3'
p1
.S'1288659065828155392,193,6,7'
p1
.S'1288699622487101440,195,58,80'
p1
.S'1288652489389907968,191,0,1'
p1
.S'1288657296758808576,195,1,2'
p1
.S'1288717926677241856,195,6,7'
p1
.S'1288676113589612544,196,28,31'
p1
.S'1288676619070128128,190,130,181'
p1
.S'1288647493370134528,181,26,27'
p1
.S'1288658529003151360,195,0,1'
p1
.S'1288692941841911808,196,85,91'
p1
.S'1288665791377657856,196,184,186'
p1
.S'1288691056174673920,196,146,165'
p1
.S'1288688054147629056,195,102,125'
p1
.S'1288706430454857728,178,15,17'
p1
.S'1288682252192329728,194,122,128'
p1
.S'1288558749539614720,196,66,67'
p1
.S'1288679252530958336,196,15,17'
p1
.S'1288684307145244672,195,7,8'
p1
.S'1288652528522780672,180,0,1'
p1
.S'1288721304803221504,187,34,36'
p1
.S'1288709802767638528,196,79,80'
p1
.S'1283982443023581184,191,7,8'
p1
.S'1283984498648121344,194,69,92'
p1
.S'1283987580639694848,172,80,81'
p1
.S'1283940722973814784,196,0,1'
p1
.S'1283987022159265792,196,4,5'
p1
.S'1283960015643983872,195,9,11'
p1
.S'1283944941823098880,179,73,99'
p1
.S'1284014283423973376,195,6,7'
p1
.S'1283956579938770944,195,2,3'
p1
.S'1283923741168316416,196,105,106'
p1
.S'1284007030239506432,193,0,1'
p1
.S'1283970084012015616,195,14,16'
p1
.S'1284014877065236480,196,2,3'
p1
.S'1283441372418228224,186,168,224'
p1
.S'1283519060898181120,195,59,60'
p1
.S'1283475053967007744,195,121,148'
p1
.S'1283457075602944000,195,1,2'
p1
.S'1283501184208052224,195,38,43'
p1
.S'1283454973191577600,188,31,33'
p1
.S'1283532333001175040,191,51,52'
p1
.S'1283439280949170176,195,0,1'
p1
.S'1283468670370254848,191,4,5'
p1
.S'1283524509718237184,180,180,181'
p1
.S'1283422662479306752,169,18,19'
p1
.S'1283500909577572352,195,64,65'
p1
.S'1283506902894370816,141,0,1'
p1
.S'1283515749008564224,196,132,133'
p1
.S'1283505369762906112,196,85,96'
p1
.S'1283457782544318464,189,2,3'
p1
.S'1283486348967624704,195,135,173'
p1
.S'1283516869684473856,170,169,305'
p1
.S'1283466031000076288,195,1,2'
p1
.S'1283534704033042432,195,0,1'
p1
.S'1283502200064446464,195,110,120'
p1
.S'1283518557011271680,187,58,61'
p1
.S'1283500914200186880,195,64,65'
p1
.S'1283542228995915776,195,13,14'
p1
.S'1283466874726309888,182,75,76'
p1
.S'1283516337125519360,138,20,22'
p1
.S'1283525215837741056,179,178,180'
p1
.S'1283522883687231488,195,54,55'
p1
.S'1283527688845676544,182,137,139'
p1
.S'1283511952223666176,196,186,189'
p1
.S'1283539828193083392,79,2,3'
p1
.S'1283519258906738688,91,0,1'
p1
.S'1283443504949420032,91,53,54'
p1
.S'1283493343988752384,194,101,302'
p1
.S'1283518396880842752,195,11,12'
p1
.S'1283493663246635008,194,0,1'
p1
.S'1283454527751794688,195,3,5'
p1
.S'1283517214393294848,204,145,146'
p1
.S'1283438658619867136,191,46,55'
p1
.S'1283484673611644928,180,16,17'
p1
.S'1283520552166150144,193,52,56'
p1
.S'1283524884202778624,166,112,128'
p1
.S'1283463475653939200,196,7,8'
p1
.S'1283450905274028032,195,42,43'
p1
.S'1283535980758462464,194,16,17'
p1
.S'1283377692003528704,184,4,5'
p1
.S'1283518368997339136,147,19,20'
p1
.S'1283487907046453248,155,85,86'
p1
.S'1283470845129719808,196,17,18'
p1
.S'1283450856477442048,194,0,1'
p1
.S'1283477135650361344,195,16,19'
p1
.S'1283460346673565696,193,0,1'
p1
.S'1283537915242254336,39,2,3'
p1
.S'1283369237679050752,195,0,1'
p1
.S'1283506442485547008,192,126,166'
p1
.S'1283504447095992320,195,36,37'
p1
.S'1283469736432537600,195,0,1'
p1
.S'1283445588478029824,195,140,143'
p1
.S'1283452737434308608,175,31,32'
p1
.S'1283474104283983872,195,83,85'
p1
.S'1283503520791900160,195,49,66'
p1
.S'1283493856364666880,148,0,1'
p1
.S'1283492302912155648,196,35,46'
p1
.S'1283490720296443904,194,11,13'
p1
.S'1283475874443837440,163,3,4'
p1
.S'1283529770293972992,185,157,209'
p1
.S'1283483136068091904,188,60,61'
p1
.S'1283524571122872320,175,74,83'
p1
.S'1283438869576368128,162,2,3'
p1
.S'1283497660699570176,195,164,168'
p1
.S'1283493206302015488,195,37,38'
p1
.S'1283479159221665792,190,38,39'
p1
.S'1283446364919476224,194,43,44'
p1
.S'1283516426078310400,196,26,28'
p1
.S'1283464930754011136,195,10,13'
p1
.S'1283453467738431488,195,0,1'
p1
.S'1283449194899705856,196,196,1242'
p1
.S'1283506938671771648,182,20,22'
p1
.S'1283490407782780928,195,36,37'
p1
.S'1283434481290227712,195,86,108'
p1
.S'1283470431201980416,117,108,161'
p1
.S'1283488400103919616,191,56,61'
p1
.S'1283508356509822976,190,32,35'
p1
.S'1283376860625293312,189,10,11'
p1
.S'1283481657982267392,166,12,13'
p1
.S'1283473738876489728,195,37,38'
p1
.S'1283461299787182080,195,0,1'
p1
.S'1283543478278168576,196,81,149'
p1
.S'1283479643701366784,194,194,195'
p1
.S'1283425609024462848,153,0,1'
p1
.S'1283445116585082880,192,29,30'
p1
.S'1283503352135221248,157,8,9'
p1
.S'1283450646464958464,195,1,2'
p1
.S'1283474701037494272,136,79,80'
p1
.S'1283528515249188864,195,0,1'
p1
.S'1282822778680242176,196,88,90'
p1
.S'1282750304240156672,195,0,1'
p1
.S'1282854283616329728,188,0,1'
p1
.S'1282749702370217984,175,23,24'
p1
.S'1282770312706019328,184,152,182'
p1
.S'1282788732537659392,196,147,158'
p1
.S'1288879485823111168,195,100,146'
p1
.S'1288911851182264320,192,85,139'
p1
.S'1288798044263211008,190,175,338'
p1
.S'1288796206188924928,187,171,290'
p1
.S'1288958148677349376,196,4,5'
p1
.S'1288940657683378176,148,23,24'
p1
.S'1288799763973697536,179,137,138'
p1
.S'1288918976105414656,170,3,4'
p1
.S'1288950312467664896,196,21,25'
p1
.S'1288950293811421184,181,39,44'
p1
.S'1288911040889102336,195,126,128'
p1
.S'1288933295530418176,196,11,12'
p1
.S'1288908905312919552,195,2,3'
p1
.S'1288887365766729728,193,2,3'
p1
.S'1288919726248067072,85,0,1'
p1
.S'1288844764598747136,195,86,115'
p1
.S'1288931034859479040,151,5,6'
p1
.S'1288961957181128704,195,99,160'
p1
.S'1288919463424933888,195,43,48'
p1
.S'1288940370482319360,195,45,48'
p1
.S'1288948055374204928,189,165,166'
p1
.S'1288909169545592832,167,50,60'
p1
.S'1288789901873135616,196,42,45'
p1
.S'1288918406053183488,195,45,46'
p1
.S'1288939148568621056,140,1,2'
p1
.S'1288901753810673664,167,12,16'
p1
.S'1288948533038620672,185,0,1'
p1
.S'1288936635610107904,195,34,35'
p1
.S'1288904032353714176,196,72,75'
p1
.S'1288945635940257792,180,144,154'
p1
.S'1288786389496209408,196,121,130'
p1
.S'1288931327848177664,96,96,182'
p1
.S'1288808386825523200,196,72,104'
p1
.S'1288854668763930624,195,35,39'
p1
.S'1288927262556717056,177,1,2'
p1
.S'1288809264072327168,166,118,210'
p1
.S'1288921489663504384,188,154,155'
p1
.S'1288943504747323392,183,181,182'
p1
.S'1288957039724658688,195,91,105'
p1
.S'1288938340695130112,184,22,23'
p1
.S'1288944577759592448,195,42,43'
p1
.S'1288961766906597376,186,7,8'
p1
.S'1288939348766900224,178,12,16'
p1
.S'1288941235993755648,196,10,11'
p1
.S'1288941031769157632,176,95,103'
p1
.S'1288892349660938240,159,2,3'
p1
.S'1288881747538640896,195,18,19'
p1
.S'1288898096247742464,174,0,1'
p1
.S'1288911829951021056,192,10,11'
p1
.S'1288913706323234816,189,96,113'
p1
.S'1288930456208916480,181,163,214'
p1
.S'1288919655586717696,129,17,21'
p1
.S'1288922703377956864,195,5,6'
p1
.S'1288932166134325248,196,101,129'
p1
.S'1288955497047056384,177,1,2'
p1
.S'1288891243862048768,195,7,8'
p1
.S'1288951259482763264,179,6,7'
p1
.S'1288830764775051264,192,72,74'
p1
.S'1288813844755886080,87,0,1'
p1
.S'1288954463356375040,195,127,239'
p1
.S'1288790883826851840,195,6,7'
p1
.S'1288910444706607104,139,38,41'
p1
.S'1288938922948337664,195,93,100'
p1
.S'1288957944377274368,187,107,136'
p1
.S'1288799167568871424,197,136,171'
p1
.S'1288937932899655680,196,196,465'
p1
.S'1288961822417948672,194,109,148'
p1
.S'1288957717251518464,120,11,15'
p1
.S'1288951513561047040,149,12,13'
p1
.S'1288965765625696256,144,30,33'
p1
.S'1288919118854205440,185,121,136'
p1
.S'1288804965636558848,195,158,258'
p1
.S'1288954772204216320,186,0,1'
p1
.S'1288952351113318400,181,107,112'
p1
.S'1288933263284834304,195,127,128'
p1
.S'1288962723727982592,195,0,1'
p1
.S'1288935593124233216,195,2,3'
p1
.S'1288960484594323456,195,1,2'
p1
.S'1288794278931619840,195,21,30'
p1
.S'1288944640422227968,195,6,7'
p1
.S'1288942679505645568,195,0,1'
p1
.S'1288952064365690880,169,2,3'
p1
.S'1288857475092828160,195,19,20'
p1
.S'1288851173939777536,194,1,2'
p1
.S'1288792691677016064,196,58,62'
p1
.S'1288895968519102464,176,53,54'
p1
.S'1288936554391306240,196,2,3'
p1
.S'1288875768306360320,195,175,401'
p1
.S'1288927963546583040,196,166,267'
p1
.S'1288947177099558912,196,31,32'
p1
.S'1288950972588404736,193,49,57'
p1
.S'1288919991831449600,195,38,39'
p1
.S'1288942214768132096,195,65,66'
p1
.S'1288890038033539072,194,0,1'
p1
.S'1283798155087241216,183,7,8'
p1
.S'1283688061070712832,170,115,116'
p1
.S'1283817744814796800,195,1,2'
p1
.S'1283675519099224064,194,29,30'
p1
.S'1283665904768643072,195,17,23'
p1
.S'1283665291280834560,190,8,9'
p1
.S'1283703570906431488,194,48,61'
p1
.S'1283826521509195776,159,9,10'
p1
.S'1283699045805826048,183,27,28'
p1
.S'1283676515883778048,190,22,25'
p1
.S'1283705426587889664,133,87,88'
p1
.S'1283680357627109376,180,0,1'
p1
.S'1283774260271620096,156,50,93'
p1
.S'1283708661063364608,195,0,1'
p1
.S'1283685913700044800,170,123,240'
p1
.S'1283666124126740480,195,0,1'
p1
.S'1283674006444220416,196,0,1'
p1
.S'1283664861062217728,193,74,110'
p1
.S'1283689505139953664,60,32,33'
p1
.S'1283690365630730240,195,30,36'
p1
.S'1283805239212167168,194,26,27'
p1
.S'1283674416500858880,196,28,29'
p1
.S'1283682568533168128,195,9,10'
p1
.S'1283663695893188608,137,0,1'
p1
.S'1283681043660083200,195,94,95'
p1
.S'1283729491210153984,195,19,21'
p1
.S'1283701487163387904,194,0,1'
p1
.S'1283699670589550592,181,55,126'
p1
.S'1283696143573872640,194,5,7'
p1
.S'1283668417232437248,196,39,57'
p1
.S'1283725370772156416,193,1,2'
p1
.S'1283818185812074496,196,163,166'
p1
.S'1283810851199537152,196,0,1'
p1
.S'1283819349886611456,181,0,1'
p1
.S'1283662345755336704,194,34,37'
p1
.S'1283825358856413184,193,85,93'
p1
.S'1283664105626075136,188,64,67'
p1
.S'1283662088279621632,196,116,187'
p1
.S'1283692783911743488,164,0,1'
p1
.S'1283814495340421120,193,69,71'
p1
.S'1283711658132672512,173,3,4'
p1
.S'1283662059883659264,195,0,1'
p1
.S'1283812083464593408,195,15,17'
p1
.S'1283816408576585728,195,28,30'
p1
.S'1283679977397014528,196,32,33'
p1
.S'1283761850806665216,196,60,61'
p1
.S'1283662634063114240,196,23,24'
p1
.S'1283824496788611072,196,26,29'
p1
.S'1283684460101066752,196,5,6'
p1
.S'1283795598877294592,180,178,196'
p1
.S'1283676300023844864,174,74,83'
p1
.S'1283808995496579072,193,30,34'
p1
.S'1283774181003153408,196,37,38'
p1
.S'1283688592606228480,194,45,47'
p1
.S'1283663018970210304,191,103,113'
p1
.S'1283740144553377792,158,4,5'
p1
.S'1283682101585498112,193,5,6'
p1
.S'1283839263959613440,195,1,2'
p1
.S'1283828156708667392,170,86,99'
p1
.S'1283659323490684928,195,83,86'
p1
.S'1283805677231534080,195,12,13'
p1
.S'1283659789515759616,196,60,64'
p1
.S'1283685981740503040,196,57,58'
p1
.S'1283694421531348992,195,6,7'
p1
.S'1283832895424892928,196,3,4'
p1
.S'1283792729377800192,195,190,360'
p1
.S'1283805414785495040,186,92,142'
p1
.S'1283689596852793344,195,0,1'
p1
.S'1283665293293608960,179,45,46'
p1
.S'1283666695609286656,195,7,8'
p1
.S'1283832000973058048,195,157,160'
p1
.S'1283821162220097536,196,80,105'
p1
.S'1283816990775312384,195,9,10'
p1
.S'1283693988704309248,196,6,7'
p1
.S'1283685921858211840,157,1,2'
p1
.S'1283814635602059264,192,169,213'
p1
.S'1283831420452257792,196,8,9'
p1
.S'1283787553484820480,195,39,40'
p1
.S'1283806076387078144,187,35,38'
p1
.S'1283696495208087552,118,9,10'
p1
.S'1283805087684251648,195,28,31'
p1
.S'1283665783028928512,195,49,52'
p1
.S'1283821926070255616,192,175,182'
p1
.S'1283660744177152000,185,106,113'
p1
.S'1283677006865272832,188,50,67'
p1
.S'1283690544832884736,196,66,93'
p1
.S'1283659348568354816,195,12,13'
p1
.S'1283667209222340608,75,1,2'
p1
.S'1283670106077048832,194,0,1'
p1
.S'1283678435168108544,196,2,3'
p1
.S'1283830479825063936,196,5,6'
p1
.S'1283680232758771712,192,20,21'
p1
.S'1283584725038579712,195,139,140'
p1
.S'1283601506670616576,195,136,137'
p1
.S'1283617071015612416,194,41,43'
p1
.S'1283577756688740352,196,12,13'
p1
.S'1283593916603691008,195,78,83'
p1
.S'1283568740801626112,152,2,3'
p1
.S'1283595763402334208,195,92,96'
p1
.S'1283572805815939072,193,17,18'
p1
.S'1283578956133945344,195,3,4'
p1
.S'1283572210170765312,195,0,1'
p1
.S'1283598811406999552,196,111,114'
p1
.S'1283589023369170944,193,179,195'
p1
.S'1291828982043586560,195,109,120'
p1
.S'1291841310684512256,85,0,1'
p1
.S'1291832527312551936,192,4,5'
p1
.S'1291825232017301504,186,3,4'
p1
.S'1291815476149870592,181,77,83'
p1
.S'1291833185390522368,195,195,214'
p1
.S'1291856574771511296,182,6,7'
p1
.S'1291853849518288896,185,9,10'
p1
.S'1291809766405984256,195,72,73'
p1
.S'1291799800769048576,196,0,1'
p1
.S'1291857365054160896,150,57,58'
p1
.S'1291819351699267584,190,0,1'
p1
.S'1291823083300454400,195,29,30'
p1
.S'1291822254136926208,194,91,94'
p1
.S'1291862639546400768,195,42,43'
p1
.S'1291823963689070592,195,143,148'
p1
.S'1291769617735667712,193,134,147'
p1
.S'1291799152594165760,182,7,8'
p1
.S'1291841822808776704,117,0,1'
p1
.S'1291787461298946048,196,73,74'
p1
.S'1291844389576110080,194,0,1'
p1
.S'1291852254453866496,196,161,170'
p1
.S'1291863487718535168,195,2,3'
p1
.S'1291821564513689600,195,49,54'
p1
.S'1291836734690201600,196,8,9'
p1
.S'1291820421917880320,191,185,346'
p1
.S'1291842570871357440,196,30,43'
p1
.S'1291855723030028288,195,130,134'
p1
.S'1291827234008637440,176,49,50'
p1
.S'1291865524824866816,196,105,107'
p1
.S'1291847520833720320,195,2,3'
p1
.S'1291693931129864192,196,6,7'
p1
.S'1291854817136128000,193,86,126'
p1
.S'1291852381193224192,191,167,168'
p1
.S'1291865447746191360,188,95,99'
p1
.S'1291837254486142976,142,82,83'
p1
.S'1291857460621402112,193,4,5'
p1
.S'1291837648649990144,195,91,106'
p1
.S'1291826941741117440,194,7,8'
p1
.S'1291844624436158464,188,18,21'
p1
.S'1291841687140110336,194,3,4'
p1
.S'1291854388444434432,195,92,93'
p1
.S'1291827541056888832,195,8,9'
p1
.S'1291805866722512896,181,3,4'
p1
.S'1291857182261993472,184,107,123'
p1
.S'1291852088984604672,195,111,113'
p1
.S'1291833975433818112,195,39,45'
p1
.S'1291852912506884096,195,27,28'
p1
.S'1291700293498757120,194,1,2'
p1
.S'1291818603691282432,195,112,118'
p1
.S'1291857682860535809,193,94,107'
p1
.S'1291841535448641536,192,45,65'
p1
.S'1291786367113814016,170,55,75'
p1
.S'1291842713662398464,196,176,336'
p1
.S'1291854964687503360,190,107,123'
p1
.S'1291845255058055168,195,102,104'
p1
.S'1291830382425194496,195,0,1'
p1
.S'1291832312652550144,196,6,7'
p1
.S'1291850312046579712,180,0,1'
p1
.S'1291823612525006848,190,63,89'
p1
.S'1291811230159622144,195,90,99'
p1
.S'1291815256456617984,194,77,93'
p1
.S'1291860459733078016,196,2,3'
p1
.S'1291797395704827904,156,0,1'
p1
.S'1291842158470569984,184,118,122'
p1
.S'1291810063904014336,195,0,1'
p1
.S'1291822367785771008,195,79,107'
p1
.S'1291854608913862656,179,1,2'
p1
.S'1291688919779426304,195,32,42'
p1
.S'1291784757289611264,193,0,1'
p1
.S'1291845070982713344,195,47,48'
p1
.S'1291826227824500736,196,9,10'
p1
.S'1291831055099551744,192,89,91'
p1
.S'1291835737540567040,196,176,416'
p1
.S'1291832661345787904,181,72,73'
p1
.S'1291810492796801024,195,13,14'
p1
.S'1291797036567785472,195,12,14'
p1
.S'1291856749502115840,179,14,15'
p1
.S'1291864503801303040,195,69,70'
p1
.S'1291834782153895936,195,195,198'
p1
.S'1291814606565785600,179,32,34'
p1
.S'1291765636984418304,175,1,2'
p1
.S'1291834181370183680,190,176,182'
p1
.S'1291850425590513664,177,0,1'
p1
.S'1291817843171725312,195,48,49'
p1
.S'1291831431185813504,177,0,1'
p1
.S'1291848969399771136,196,79,102'
p1
.S'1291851011333455872,194,33,34'
p1
.S'1291823473572061184,181,16,17'
p1
.S'1291848053992706048,184,24,27'
p1
.S'1291861150711042048,194,76,110'
p1
.S'1291832907396472832,183,11,12'
p1
.S'1291830233418416128,196,57,66'
p1
.S'1291830247335055360,195,112,165'
p1
.S'1291825039368720384,195,59,60'
p1
.S'1291841878060601344,192,175,240'
p1
.S'1290854588634865664,173,36,37'
p1
.S'1290818033803513856,179,5,6'
p1
.S'1290909812942585856,179,3,4'
p1
.S'1290812664410517504,195,1,2'
p1
.S'1290848104307982336,196,47,54'
p1
.S'1290867522698383360,189,43,44'
p1
.S'1290801564327763968,196,44,45'
p1
.S'1290928734525968384,196,45,59'
p1
.S'1290829865016348672,190,50,64'
p1
.S'1290907496063627264,194,0,1'
p1
.S'1290847438818648064,194,0,1'
p1
.S'1290848217902280704,195,69,71'
p1
.S'1290856918067580928,196,22,23'
p1
.S'1290838836712259584,194,114,147'
p1
.S'1290784306243235840,134,4,5'
p1
.S'1290925853726932992,195,1,2'
p1
.S'1290817633322934272,196,4,5'
p1
.S'1290825915064037376,182,4,5'
p1
.S'1290892933574598656,196,22,23'
p1
.S'1290846940418007040,161,63,67'
p1
.S'1290808995728269312,196,122,125'
p1
.S'1290877763821203456,173,78,82'
p1
.S'1290814974595362816,195,6,7'
p1
.S'1290868351521968128,196,7,9'
p1
.S'1290800975657033728,196,9,10'
p1
.S'1290798503106387968,191,47,58'
p1
.S'1290848581749817344,188,21,22'
p1
.S'1290785509794295808,196,2,3'
p1
.S'1290902261295644672,195,20,21'
p1
.S'1290825687762132992,194,0,1'
p1
.S'1290840713252294656,194,113,217'
p1
.S'1290919847068385280,196,16,17'
p1
.S'1290820274064867328,195,0,1'
p1
.S'1290792705471168512,145,27,34'
p1
.S'1290806071933509632,196,196,272'
p1
.S'1290847988691910656,194,34,35'
p1
.S'1290788945470607360,195,79,99'
p1
.S'1290809342848835584,194,194,380'
p1
.S'1290819355877470208,195,113,116'
p1
.S'1290838370138136576,196,67,69'
p1
.S'1290799142494474240,176,60,62'
p1
.S'1290854683686092800,195,12,13'
p1
.S'1290879284223025152,196,106,109'
p1
.S'1290846132158799872,195,30,35'
p1
.S'1290831256648564736,189,77,88'
p1
.S'1290907687877591040,156,28,42'
p1
.S'1290834726395228160,195,40,46'
p1
.S'1290950370210004992,195,3,4'
p1
.S'1290811793790394368,194,9,10'
p1
.S'1290844993606606848,196,8,9'
p1
.S'1290838537624772608,156,11,12'
p1
.S'1290793606558646272,196,131,193'
p1
.S'1290927077473902592,150,6,7'
p1
.S'1290908735551746048,195,1,2'
p1
.S'1290942012652134400,196,0,1'
p1
.S'1290860778899034112,195,5,6'
p1
.S'1290818699116359680,177,76,78'
p1
.S'1290877616219365376,196,2,3'
p1
.S'1290957012221509632,196,35,36'
p1
.S'1290806248597606400,192,105,122'
p1
.S'1290840794726535168,132,0,1'
p1
.S'1290817399612166144,193,56,59'
p1
.S'1290914451436048384,196,21,23'
p1
.S'1290911443901915136,196,7,8'
p1
.S'1290873930491596800,196,3,4'
p1
.S'1290855614540619776,187,83,92'
p1
.S'1290814465260265472,194,114,132'
p1
.S'1290833084086091776,148,51,57'
p1
.S'1290839269841494016,195,18,19'
p1
.S'1290814983487303680,196,96,98'
p1
.S'1290819957638463488,169,30,32'
p1
.S'1290788291112808448,196,3,4'
p1
.S'1290830498310111232,196,68,86'
p1
.S'1290851697601982464,195,159,186'
p1
.S'1290950009650819072,148,102,103'
p1
.S'1290812666092654592,186,0,1'
p1
.S'1290778846064435200,151,0,1'
p1
.S'1290854431629697024,167,101,108'
p1
.S'1290828837990830080,195,26,27'
p1
.S'1290855219068334080,196,30,38'
p1
.S'1290828060983181312,193,73,82'
p1
.S'1290955904980017152,196,0,1'
p1
.S'1290833071608066048,179,5,6'
p1
.S'1290869371543166976,196,28,30'
p1
.S'1290859747414777856,156,1,2'
p1
.S'1290835224900620288,195,80,81'
p1
.S'1290858061216817152,85,0,1'
p1
.S'1290813262027550720,174,110,111'
p1
.S'1290795651499745280,195,129,130'
p1
.S'1290822763413671936,196,41,42'
p1
.S'1290804006930825216,177,14,15'
p1
.S'1283997888070213632,196,19,20'
p1
.S'1284011065444818944,195,195,197'
p1
.S'1284013510933790720,201,2,3'
p1
.S'1284063549538619392,180,55,56'
p1
.S'1284004271976751104,195,76,82'
p1
.S'1284007030239506432,193,0,1'
p1
.S'1284033371190210560,195,0,1'
p1
.S'1284021685493874688,196,100,119'
p1
.S'1284070429988360192,195,58,88'
p1
.S'1284052533186392064,195,0,1'
p1
.S'1284028724479754240,134,14,18'
p1
.S'1284005924356411392,195,12,25'
p1
.S'1284016721715494912,195,0,1'
p1
.S'1284020708233691136,194,0,1'
p1
.S'1284163111863107584,195,75,85'
p1
.S'1284043442938855424,195,159,174'
p1
.S'1284068497638731776,164,47,48'
p1
.S'1284041453781598208,195,49,51'
p1
.S'1284016590538645504,194,35,36'
p1
.S'1284161121149984768,193,105,106'
p1
.S'1284030153936326656,196,85,86'
p1
.S'1284046168036696064,196,102,112'
p1
.S'1284165763724668928,195,0,1'
p1
.S'1284036348340789248,195,0,1'
p1
.S'1284027833844744192,188,2,3'
p1
.S'1284040960057188352,196,36,38'
p1
.S'1284048031930798080,196,0,1'
p1
.S'1284010879767691264,191,2,3'
p1
.S'1284170061950734336,194,2,3'
p1
.S'1284014283423973376,195,6,7'
p1
.S'1283998524929089536,195,49,50'
p1
.S'1284008818145660928,193,158,160'
p1
.S'1284021491448557568,187,46,53'
p1
.S'1284089081030443008,196,15,16'
p1
.S'1284013733026439168,185,43,60'
p1
.S'1284034176328273920,192,58,73'
p1
.S'1284046416418934784,195,51,184'
p1
.S'1284003256976441344,184,30,32'
p1
.S'1284022365877428224,192,3,4'
p1
.S'1283998564657381376,196,18,20'
p1
.S'1284018213067649024,195,11,12'
p1
.S'1284020027955576832,196,64,66'
p1
.S'1284065297707552768,191,154,155'
p1
.S'1284175140368351232,193,33,34'
p1
.S'1284169182925705216,195,39,40'
p1
.S'1284002010038992896,195,52,53'
p1
.S'1284039215889649664,191,0,1'
p1
.S'1284042174115344384,196,81,95'
p1
.S'1284057333798469632,135,118,175'
p1
.S'1284044774688882688,186,31,32'
p1
.S'1284007939510009856,190,10,11'
p1
.S'1284018141601071104,195,35,42'
p1
.S'1284034580134998016,166,9,11'
p1
.S'1284000085445058560,195,39,123'
p1
.S'1284017420209631232,195,40,85'
p1
.S'1284053017381302272,113,88,90'
p1
.S'1284029359816630272,195,0,1'
p1
.S'1284000200960385024,163,6,7'
p1
.S'1284006941672513536,195,1,2'
p1
.S'1284040514987511808,174,2,3'
p1
.S'1284029746279550976,195,41,48'
p1
.S'1284064892324061184,195,0,1'
p1
.S'1284033238289244160,190,85,104'
p1
.S'1284023020872413184,196,75,110'
p1
.S'1284162185966538752,185,62,63'
p1
.S'1284030636226674688,196,93,96'
p1
.S'1284065669499269120,134,5,6'
p1
.S'1284018501681909760,193,8,9'
p1
.S'1284014877065236480,196,2,3'
p1
.S'1284010283714981888,191,0,1'
p1
.S'1284019335140638720,180,173,328'
p1
.S'1283997537203863552,192,34,37'
p1
.S'1283999562155581440,195,9,10'
p1
.S'1284061813042274304,177,114,127'
p1
.S'1284063829415927808,185,15,16'
p1
.S'1284026217875804160,179,0,1'
p1
.S'1284064491763568640,195,138,145'
p1
.S'1284051562272587776,195,55,56'
p1
.S'1284042472452165632,195,4,5'
p1
.S'1284002231209041920,195,3,4'
p1
.S'1283996272596045824,175,0,1'
p1
.S'1284019536823529472,195,52,55'
p1
.S'1284000777601724416,194,77,84'
p1
.S'1284013372362911744,159,2,3'
p1
.S'1284029017670242304,195,53,56'
p1
.S'1284013175393714176,196,80,85'
p1
.S'1282941598019248128,195,0,1'
p1
.S'1282901091369074688,194,0,1'
p1
.S'1282872215419138048,195,52,72'
p1
.S'1282896126508789760,167,35,52'
p1
.S'1282919471929012224,96,1,2'
p1
.S'1282953132707622912,195,5,6'
p1
.S'1282936607170867200,173,43,44'
p1
.S'1283011228926689280,189,3,4'
p1
.S'1282984396408197120,102,2,3'
p1
.S'1282906927109931008,137,137,228'
p1
.S'1282876484893200384,192,132,169'
p1
.S'1282917467077373952,183,95,102'
p1
.S'1282920047572320256,196,9,10'
p1
.S'1282920665334829056,181,122,131'
p1
.S'1282899490558861312,196,18,19'
p1
.S'1282893977879732224,185,37,39'
p1
.S'1282978968265551872,195,47,49'
p1
.S'1282875174098214912,195,63,68'
p1
.S'1282955899912286208,195,28,41'
p1
.S'1289401829746167808,195,53,54'
p1
.S'1289397361306734592,196,84,90'
p1
.S'1289392106422620160,196,4,5'
p1
.S'1289402911977574400,196,7,8'
p1
.S'1289392648628625408,196,89,100'
p1
.S'1289386665139703808,196,113,153'
p1
.S'1289386901937205248,194,161,169'
p1
.S'1289418976757170176,157,3,4'
p1
.S'1289373311402450944,196,24,27'
p1
.S'1289400119825195008,171,36,38'
p1
.S'1289419323177398272,196,109,111'
p1
.S'1289385015243046912,193,9,10'
p1
.S'1289412439380840448,186,51,53'
p1
.S'1289419459232468992,195,56,57'
p1
.S'1289409096084332544,189,5,6'
p1
.S'1289383130519752704,194,0,1'
p1
.S'1289384272935186432,187,139,140'
p1
.S'1289407302843187200,195,37,41'
p1
.S'1289397833748942848,195,4,5'
p1
.S'1289382580566855680,194,175,243'
p1
.S'1289389113082003456,195,81,88'
p1
.S'1289389433598218240,195,66,69'
p1
.S'1289426654174875648,194,53,127'
p1
.S'1289424666792230912,194,79,84'
p1
.S'1289380681872457728,181,49,50'
p1
.S'1289399740169326592,196,0,1'
p1
.S'1289403656504274944,195,30,37'
p1
.S'1289383643886018560,190,1,2'
p1
.S'1289435316608004096,195,39,41'
p1
.S'1289413355475472384,195,91,92'
p1
.S'1289406537466843136,161,3,4'
p1
.S'1289379220099063808,194,65,66'
p1
.S'1289379572596523008,195,14,15'
p1
.S'1289393672806645760,188,23,26'
p1
.S'1289394129520025600,178,4,5'
p1
.S'1289451932875952128,196,3,4'
p1
.S'1289425488284188672,195,109,161'
p1
.S'1289406149262786560,195,37,38'
p1
.S'1289402038068854784,189,36,43'
p1
.S'1289472688922005504,195,40,41'
p1
.S'1289414278784634880,196,5,6'
p1
.S'1289475816950218752,196,145,150'
p1
.S'1289405115266228224,195,31,32'
p1
.S'1289390220587991040,187,153,218'
p1
.S'1289409709195116544,194,0,1'
p1
.S'1289391340517740544,196,7,8'
p1
.S'1289398528619241472,189,16,17'
p1
.S'1289389539399516160,172,5,6'
p1
.S'1289395473492647936,196,59,95'
p1
.S'1289419230911320064,188,70,72'
p1
.S'1289374007057117184,195,123,208'
p1
.S'1289458102579732480,196,30,32'
p1
.S'1289390882059362304,193,3,4'
p1
.S'1289408711202349056,196,69,80'
p1
.S'1289468974542815232,196,150,151'
p1
.S'1289412937357967360,196,43,45'
p1
.S'1289463797933047808,195,64,70'
p1
.S'1289391777702649856,195,138,165'
p1
.S'1289452043710660608,194,0,1'
p1
.S'1289410013940883456,195,11,12'
p1
.S'1289413371824930816,196,9,10'
p1
.S'1289376165324292096,193,0,1'
p1
.S'1289528328423907328,196,154,158'
p1
.S'1289431987060400128,195,185,214'
p1
.S'1289435392021602304,196,3,4'
p1
.S'1289407978298073088,196,153,168'
p1
.S'1289389916337434624,188,111,121'
p1
.S'1289393608738631680,184,4,5'
p1
.S'1289401592273313792,195,16,17'
p1
.S'1289413331467313152,179,0,1'
p1
.S'1289389609889021952,196,75,85'
p1
.S'1289410897672335360,170,59,62'
p1
.S'1289436970959138816,144,9,10'
p1
.S'1289376509572063232,196,148,150'
p1
.S'1289427598039990272,195,7,8'
p1
.S'1289435826199130112,145,115,117'
p1
.S'1289378371343945728,194,0,1'
p1
.S'1289381390496227328,171,30,31'
p1
.S'1289401424425447424,195,19,21'
p1
.S'1289394430952026112,195,44,45'
p1
.S'1289383564668014592,195,10,11'
p1
.S'1289387431497445376,190,9,10'
p1
.S'1289398742168055808,194,56,63'
p1
.S'1289395934949945344,196,127,134'
p1
.S'1289394453333016576,195,2,3'
p1
.S'1289428811297255424,195,1,2'
p1
.S'1289543454585950208,196,49,51'
p1
.S'1282580492557955072,195,99,102'
p1
.S'1282484959118094336,196,95,109'
p1
.S'1282503124032348160,196,0,1'
p1
.S'1282524234241191936,191,1,2'
p1
.S'1282513685323063296,194,104,105'
p1
.S'1282586859263909888,196,15,16'
p1
.S'1282478311117049856,196,193,203'
p1
.S'1282512356546850816,192,27,30'
p1
.S'1282497176828301312,91,0,1'
p1
.S'1282467048492060672,195,26,27'
p1
.S'1282492645167554560,196,84,101'
p1
.S'1282470658689351680,180,17,18'
p1
.S'1282505997533487104,195,60,63'
p1
.S'1282503183478464512,194,8,9'
p1
.S'1282468039862226944,195,77,81'
p1
.S'1282460961571577856,195,127,174'
p1
.S'1282508964562862080,196,61,64'
p1
.S'1282499573650227200,195,2,3'
p1
.S'1282564944419782656,195,2,3'
p1
.S'1282496495756685312,195,98,133'
p1
.S'1282520295059636224,195,14,15'
p1
.S'1282447043109265408,195,75,81'
p1
.S'1282532160074919936,195,4,5'
p1
.S'1282515198326038528,196,63,64'
p1
.S'1282575881436590080,156,28,29'
p1
.S'1282441616044486656,196,108,128'
p1
.S'1282848935207424000,196,83,84'
p1
.S'1282810367671939072,136,14,15'
p1
.S'1282841360206385152,190,84,95'
p1
.S'1282812685934800896,191,66,69'
p1
.S'1282807686031106048,194,97,98'
p1
.S'1282831849588445184,192,52,57'
p1
.S'1282730190677897216,75,0,1'
p1
.S'1282806706271035392,177,0,1'
p1
.S'1282796056110862336,196,4,5'
p1
.S'1282791950374031360,195,84,86'
p1
.S'1282808427118563328,30,0,1'
p1
.S'1282797077784838144,188,5,6'
p1
.S'1282807998519422976,195,87,89'
p1
.S'1282817707984748544,123,35,36'
p1
.S'1282838500676358144,196,25,31'
p1
.S'1282827087509880832,195,121,126'
p1
.S'1282764183511175168,130,1,2'
p1
.S'1282828907942912000,180,54,59'
p1
.S'1282843004566384640,196,196,197'
p1
.S'1282847412494962688,195,3,4'
p1
.S'1283216205150662656,167,49,50'
p1
.S'1283189018829488128,174,2,3'
p1
.S'1283215966385668096,177,1,2'
p1
.S'1283213455935537152,195,169,181'
p1
.S'1283210393158103040,143,72,73'
p1
.S'1283221321157361664,195,93,94'
p1
.S'1283227682263736320,193,8,9'
p1
.S'1283134634645139456,129,3,4'
p1
.S'1283218559903920128,192,52,55'
p1
.S'1283196523718852608,185,2,3'
p1
.S'1283157868396331008,181,4,5'
p1
.S'1283218978952630272,194,45,51'
p1
.S'1283220099842891776,187,4,5'
p1
.S'1283191264875552768,194,40,41'
p1
.S'1283152992199155712,118,4,5'
p1
.S'1283098266359726080,150,36,37'
p1
.S'1283216205150662656,167,49,50'
p1
.S'1283230384703922176,195,0,1'
p1
.S'1283205074902474752,196,13,14'
p1
.S'1283245490372284416,186,14,15'
p1
.S'1283230965187366912,195,145,177'
p1
.S'1283615770781839360,196,50,58'
p1
.S'1283682101585498112,193,5,6'
p1
.S'1283689505139953664,60,32,33'
p1
.S'1283629768788905984,194,115,121'
p1
.S'1283648675914096640,194,98,101'
p1
.S'1283608030243930112,195,110,112'
p1
.S'1283627964961316864,190,74,121'
p1
.S'1283676515883778048,190,22,25'
p1
.S'1283628453660405760,185,6,7'
p1
.S'1283623873078059008,193,13,14'
p1
.S'1283607819085869056,193,8,11'
p1
.S'1283667209222340608,75,1,2'
p1
.S'1283690544832884736,196,66,93'
p1
.S'1283705426587889664,133,87,88'
p1
.S'1283613752163708928,188,68,69'
p1
.S'1283659789515759616,196,60,64'
p1
.S'1283662059883659264,195,0,1'
p1
.S'1283699670589550592,181,55,126'
p1
.S'1283633231136194560,158,83,84'
p1
.S'1283625901275713536,174,105,106'
p1
.S'1283648551305564160,192,21,55'
p1
.S'1283648693190946816,131,3,4'
p1
.S'1283640984227725312,195,43,45'
p1
.S'1283616609428533248,203,116,132'
p1
.S'1283688592606228480,194,45,47'
p1
.S'1283615808232505344,194,101,110'
p1
.S'1283628983359524864,196,144,149'
p1
.S'1283606588711927808,195,21,23'
p1
.S'1283653245650477056,180,41,56'
p1
.S'1283649854413103104,196,0,1'
p1
.S'1283614924949893120,195,93,127'
p1
.S'1283646778075672576,176,0,1'
p1
.S'1283618170934554624,194,44,48'
p1
.S'1283658676754120704,189,65,68'
p1
.S'1283654749329739776,196,103,104'
p1
.S'1283475053967007744,195,121,148'
p1
.S'1283528515249188864,195,0,1'
p1
.S'1283570187278381056,195,61,87'
p1
.S'1283589644449206272,189,0,1'
p1
.S'1283597855864856576,195,32,34'
p1
.S'1283595760822312960,163,7,9'
p1
.S'1283585169315790848,196,184,187'
p1
.S'1283552644292026368,192,1,2'
p1
.S'1283566647264890880,195,1,2'
p1
.S'1283516869684473856,170,169,305'
p1
.S'1283566659982516224,195,30,34'
p1
.S'1283586104754855936,195,0,1'
p1
.S'1283602978066345984,195,81,84'
p1
.S'1283600848987254784,195,166,168'
p1
.S'1283588707924283392,194,153,171'
p1
.S'1283589023369170944,193,179,195'
p1
.S'1283565625729781760,194,96,137'
p1
.S'1283589067740745728,196,124,140'
p1
.S'1283593916603691008,195,78,83'
p1
.S'1283549460140044288,196,1,2'
p1
.S'1283577756688740352,196,12,13'
p1
.S'1283588797153570816,189,107,109'
p1
.S'1283590440037367808,175,135,151'
p1
.S'1283588027440422912,174,80,82'
p1
.S'1283518396880842752,195,11,12'
p1
.S'1283477135650361344,195,16,19'
p1
.S'1283571192036470784,196,39,41'
p1
.S'1283585423612211200,194,107,117'
p1
.S'1283595456190251008,196,3,4'
p1
.S'1283443504949420032,91,53,54'
p1
.S'1283583963092930560,192,13,14'
p1
.S'1283573579165966336,183,2,3'
p1
.S'1283584725038579712,195,139,140'
p1
.S'1283601789342113792,194,192,194'
p1
.S'1283572210170765312,195,0,1'
p1
.S'1283593752786976768,187,11,12'
p1
.S'1283601506670616576,195,136,137'
p1
.S'1283597858729320448,184,184,257'
p1
.S'1283595706363502592,195,20,22'
p1
.S'1283585987649433600,196,189,398'
p1
.S'1283506938671771648,182,20,22'
p1
.S'1283590186332471296,182,122,141'
p1
.S'1283578683440975872,191,74,75'
p1
.S'1283592946775982080,196,153,154'
p1
.S'1283576274333646848,190,115,120'
p1
.S'1283552120389435392,195,0,1'
p1
.S'1283570233587691520,196,29,30'
p1
.S'1283572805815939072,193,17,18'
p1
.S'1283593974116155392,196,81,82'
p1
.S'1283573205696978944,196,50,53'
p1
.S'1283592274412191744,196,17,19'
p1
.S'1283578956133945344,195,3,4'
p1
.S'1283575274696830976,196,0,1'
p1
.S'1283566151577845760,196,30,31'
p1
.S'1283592539056271360,183,61,74'
p1
.S'1283600978293743616,87,9,10'
p1
.S'1283587271500922880,189,0,1'
p1
.S'1292333383262810112,196,69,73'
p1
.S'1292419364322410496,173,35,38'
p1
.S'1292351995025735680,195,16,18'
p1
.S'1292343445259722752,189,188,195'
p1
.S'1292338845706522624,193,11,12'
p1
.S'1292320249542262784,195,99,226'
p1
.S'1292367990817529856,195,11,14'
p1
.S'1292346191119802368,192,3,4'
p1
.S'1292336837662527488,196,26,27'
p1
.S'1292389939236999168,186,181,187'
p1
.S'1292377941208371200,195,52,53'
p1
.S'1292336323474202624,189,23,32'
p1
.S'1292371807910936576,196,174,220'
p1
.S'1292430854261710848,181,1,2'
p1
.S'1292398365858242560,195,27,28'
p1
.S'1292319307287932928,195,3,4'
p1
.S'1292399140428750848,195,9,10'
p1
.S'1292373539785420800,192,94,165'
p1
.S'1292345511419977728,194,74,97'
p1
.S'1292340484035215360,181,14,15'
p1
.S'1292427324973035520,190,83,84'
p1
.S'1292325544649785344,168,0,1'
p1
.S'1292399262113677312,182,18,19'
p1
.S'1292337767703261184,195,141,181'
p1
.S'1292398469641834496,195,83,94'
p1
.S'1292394684928393216,190,121,122'
p1
.S'1292373507824857088,195,140,142'
p1
.S'1292348402218225664,195,27,28'
p1
.S'1292349385103298560,192,0,1'
p1
.S'1292369617423302656,180,36,37'
p1
.S'1292356858526703616,195,142,146'
p1
.S'1292388551652245504,195,57,58'
p1
.S'1292380863799152640,196,113,127'
p1
.S'1292338269497049088,195,71,75'
p1
.S'1292394268945735680,194,0,1'
p1
.S'1292340489982513152,190,132,135'
p1
.S'1292323982284341248,172,105,131'
p1
.S'1292341303388348416,169,139,166'
p1
.S'1292345684892299264,196,0,1'
p1
.S'1292323005061648384,196,0,1'
p1
.S'1292390088915202048,165,68,72'
p1
.S'1292406135504187392,193,12,14'
p1
.S'1292331065943703552,176,89,90'
p1
.S'1292381048193609728,76,66,67'
p1
.S'1292332071452385280,195,127,130'
p1
.S'1292402711064915968,195,127,143'
p1
.S'1292496826137731072,201,0,1'
p1
.S'1292387375099838464,193,124,125'
p1
.S'1292396378215112704,184,68,76'
p1
.S'1292330532071448576,181,1,2'
p1
.S'1292320302667386880,195,6,7'
p1
.S'1292383233899728896,196,2,3'
p1
.S'1292393343464230912,122,8,9'
p1
.S'1292355133405016064,194,48,50'
p1
.S'1292418522139541504,179,17,18'
p1
.S'1292393369439760384,196,0,1'
p1
.S'1292404344293302272,195,4,5'
p1
.S'1292399227909337088,191,65,68'
p1
.S'1292336510934654976,193,0,1'
p1
.S'1292366275712024576,192,78,81'
p1
.S'1292332683728506880,183,88,89'
p1
.S'1292349270267183104,181,76,91'
p1
.S'1292419906985488384,195,0,1'
p1
.S'1292345878786777088,196,47,56'
p1
.S'1292407581289127936,195,4,5'
p1
.S'1292377795070394368,66,12,13'
p1
.S'1292339969733611520,196,10,11'
p1
.S'1292482682521120768,194,108,109'
p1
.S'1292350007860772864,192,64,67'
p1
.S'1292365867711123456,195,0,1'
p1
.S'1292340984008667136,166,113,140'
p1
.S'1292366304912822272,195,195,196'
p1
.S'1292402496052113408,196,32,33'
p1
.S'1292355875016998912,172,63,75'
p1
.S'1292323823596851200,193,55,57'
p1
.S'1292436215693766656,192,11,12'
p1
.S'1292432662409150464,196,82,83'
p1
.S'1292330887731617792,195,10,11'
p1
.S'1292360017131012096,193,68,70'
p1
.S'1292390138135351296,133,5,7'
p1
.S'1292354014566350848,196,41,42'
p1
.S'1292330546017796096,175,55,57'
p1
.S'1292348128384724992,194,6,7'
p1
.S'1292374099963846656,89,36,42'
p1
.S'1292398143799234560,196,100,199'
p1
.S'1292371552675004416,183,49,50'
p1
.S'1292357939461578752,195,14,16'
p1
.S'1292340064944308224,157,157,168'
p1
.S'1292414092404989952,188,0,1'
p1
.S'1283267538163769344,183,34,37'
p1
.S'1283230961106317312,112,25,26'
p1
.S'1283216305612288000,193,0,1'
p1
.S'1283205808645140480,195,40,42'
p1
.S'1283226933261406208,196,177,180'
p1
.S'1283242254316023808,196,33,34'
p1
.S'1283217930691739648,195,39,41'
p1
.S'1283203690320756736,178,36,37'
p1
.S'1283247569652387840,190,3,4'
p1
.S'1283216205150662656,167,49,50'
p1
.S'1283217580408315904,192,15,16'
p1
.S'1283207977436114944,195,0,1'
p1
.S'1283220812979642368,194,22,23'
p1
.S'1283263437430214656,195,115,136'
p1
.S'1283203717356830720,190,18,20'
p1
.S'1283227110760394752,196,196,200'
p1
.S'1283230288709300224,195,40,44'
p1
.S'1283232010046939136,195,27,28'
p1
.S'1283218393918525440,189,41,42'
p1
.S'1283250234956369920,196,161,324'
p1
.S'1283233853125361664,195,4,5'
p1
.S'1283239295909855232,177,63,70'
p1
.S'1283229344890007552,195,46,48'
p1
.S'1283217070691164160,196,67,474'
p1
.S'1283233389444497408,188,0,1'
p1
.S'1283220714803159040,195,96,120'
p1
.S'1283243997732687872,177,12,13'
p1
.S'1283181356151099392,152,5,6'
p1
.S'1283223193997688832,196,20,21'
p1
.S'1283187718734143488,195,172,210'
p1
.S'1283208005181206528,195,2,3'
p1
.S'1283234334618386432,188,0,1'
p1
.S'1283240970582196224,196,70,74'
p1
.S'1283237992865120256,193,32,34'
p1
.S'1283269808620040192,195,113,164'
p1
.S'1283267778102898688,194,46,50'
p1
.S'1283267234525036544,196,2,3'
p1
.S'1283259295739596800,195,59,60'
p1
.S'1283215966385668096,177,1,2'
p1
.S'1283248878095130624,195,164,165'
p1
.S'1283230965187366912,195,145,177'
p1
.S'1283223374549692416,195,54,58'
p1
.S'1283220099842891776,187,4,5'
p1
.S'1283227682263736320,193,8,9'
p1
.S'1283233765623529472,195,106,126'
p1
.S'1283246225004593152,195,3,4'
p1
.S'1283263589377003520,160,12,14'
p1
.S'1283226008778592256,194,0,1'
p1
.S'1283211441658826752,188,32,34'
p1
.S'1283223352140009472,195,24,25'
p1
.S'1283254581425541120,195,37,38'
p1
.S'1283189879429791744,195,16,17'
p1
.S'1283245333950365696,196,1,2'
p1
.S'1283271129578504192,195,42,43'
p1
.S'1283219395321184256,195,179,284'
p1
.S'1283216025512509440,184,40,41'
p1
.S'1283269431900127232,150,9,10'
p1
.S'1283245965998280704,193,67,69'
p1
.S'1283199714006872064,194,190,260'
p1
.S'1283232681165221888,14,5,6'
p1
.S'1283220824635445248,195,35,36'
p1
.S'1283230384703922176,195,0,1'
p1
.S'1283228855846490112,196,186,194'
p1
.S'1283240728625598464,196,11,12'
p1
.S'1283228184867213312,195,12,13'
p1
.S'1283235941737472000,195,9,10'
p1
.S'1283209578569404416,193,64,65'
p1
.S'1283191932218429440,157,2,3'
p1
.S'1283210393158103040,143,72,73'
p1
.S'1283174097295437824,177,39,48'
p1
.S'1283245164219518976,195,36,37'
p1
.S'1283237750791389184,195,74,82'
p1
.S'1283191264875552768,194,40,41'
p1
.S'1283229262111461376,198,0,1'
p1
.S'1283253468064370688,193,120,121'
p1
.S'1283245490372284416,186,14,15'
p1
.S'1283213455935537152,195,169,181'
p1
.S'1283261957637640192,194,194,195'
p1
.S'1283249779228426240,180,103,104'
p1
.S'1283244065978531840,165,20,21'
p1
.S'1283205074902474752,196,13,14'
p1
.S'1283262990052909056,166,102,122'
p1
.S'1283256620259971072,196,13,14'
p1
.S'1283258539456249856,157,117,184'
p1
.S'1283247100939399168,172,31,41'
p1
.S'1283213498906034176,196,90,91'
p1
.S'1282460961571577856,195,127,174'
p1
.S'1282438706217070592,195,25,26'
p1
.S'1282491511422210048,195,0,1'
p1
.S'1282564944419782656,195,2,3'
p1
.S'1282504995425644544,195,1,2'
p1
.S'1282447043109265408,195,75,81'
p1
.S'1282484959118094336,196,95,109'
p1
.S'1282515198326038528,196,63,64'
p1
.S'1282503124032348160,196,0,1'
p1
.S'1282565400218976256,181,139,198'
p1
.S'1282500458405310464,196,56,64'
p1
.S'1283964830822367232,189,105,107'
p1
.S'1283984498648121344,194,69,92'
p1
.S'1283969296812371968,157,0,1'
p1
.S'1283913248613269504,196,2,3'
p1
.S'1283962883998908416,195,32,36'
p1
.S'1283957776250982400,189,19,21'
p1
.S'1283971901236633600,195,141,147'
p1
.S'1284013175393714176,196,80,85'
p1
.S'1283987466315022336,196,22,23'
p1
.S'1283914210950651904,185,70,104'
p1
.S'1283967999308673024,195,124,138'
p1
.S'1283987022159265792,196,4,5'
p1
.S'1283965321715372032,188,42,43'
p1
.S'1283953444352610304,192,122,125'
p1
.S'1283952226443898880,194,0,1'
p1
.S'1283923741168316416,196,105,106'
p1
.S'1283956740744216576,195,89,93'
p1
.S'1283940722973814784,196,0,1'
p1
.S'1283949363500363776,195,195,197'
p1
.S'1283947485761019904,195,11,12'
p1
.S'1283986175291531264,195,86,126'
p1
.S'1283968155928117248,196,146,171'
p1
.S'1283963753016205312,195,178,261'
p1
.S'1283976301866364928,179,102,104'
p1
.S'1283943000250200064,52,4,5'
p1
.S'1283952722089328640,195,106,112'
p1
.S'1283980357301579776,195,6,7'
p1
.S'1283882322441723904,174,85,92'
p1
.S'1283978494967422976,195,2,3'
p1
.S'1284002010038992896,195,52,53'
p1
.S'1283944941823098880,179,73,99'
p1
.S'1283908831394807808,195,87,98'
p1
.S'1283972074377207808,175,0,1'
p1
.S'1283960015643983872,195,9,11'
p1
.S'1284010983123771392,196,4,5'
p1
.S'1283977782971756544,189,126,130'
p1
.S'1283959575833665536,180,0,1'
p1
.S'1282896126508789760,167,35,52'
p1
.S'1282930955694301184,116,2,3'
p1
.S'1283011228926689280,189,3,4'
p1
.S'1282906540587782144,176,14,15'
p1
.S'1282906351194324992,195,51,52'
p1
.S'1282899261801242624,186,33,35'
p1
.S'1282962288575680512,187,100,105'
p1
.S'1282944218750431232,196,1,2'
p1
.S'1291170901769248768,194,17,19'
p1
.S'1291211760359317504,196,72,74'
p1
.S'1291187353171726336,194,73,75'
p1
.S'1291218064901595136,195,7,8'
p1
.S'1291174250660700160,189,65,83'
p1
.S'1291158625745891328,196,78,81'
p1
.S'1291293195820752896,195,40,43'
p1
.S'1291228852735328256,195,42,47'
p1
.S'1291209053015552000,153,29,31'
p1
.S'1291272996882915328,196,26,27'
p1
.S'1291167782897168384,189,123,124'
p1
.S'1291167992574574592,195,30,32'
p1
.S'1291188452909563904,192,5,6'
p1
.S'1291184169795403776,184,18,20'
p1
.S'1291298955421999104,193,0,1'
p1
.S'1291169484245282816,194,0,1'
p1
.S'1291199102981386240,142,80,86'
p1
.S'1291185602628567040,164,4,5'
p1
.S'1291195443090472960,196,49,53'
p1
.S'1291209023168860160,188,2,3'
p1
.S'1291151040078811136,195,1,2'
p1
.S'1291152678864740352,194,57,59'
p1
.S'1291194519555117056,195,117,177'
p1
.S'1291176903952490496,185,101,104'
p1
.S'1291205649111654400,192,15,16'
p1
.S'1291186066967142400,190,29,32'
p1
.S'1291201728913518592,178,24,25'
p1
.S'1291245559696572416,191,124,125'
p1
.S'1291168332569071616,191,49,67'
p1
.S'1291208190171725824,195,81,82'
p1
.S'1291185887409283072,196,84,85'
p1
.S'1291254692697001984,195,137,139'
p1
.S'1291185251905081344,195,117,168'
p1
.S'1291145640683966464,155,6,7'
p1
.S'1291198671056420864,162,11,12'
p1
.S'1291185843452944384,195,59,60'
p1
.S'1291253913932222464,195,3,4'
p1
.S'1291167685706653696,158,0,1'
p1
.S'1291304418297499648,164,41,42'
p1
.S'1291274037636554752,195,0,1'
p1
.S'1291281199125446656,106,1,2'
p1
.S'1291184466647502848,187,0,1'
p1
.S'1291163384045555712,188,188,340'
p1
.S'1291195423125639168,194,22,23'
p1
.S'1291249564745400320,195,144,145'
p1
.S'1291201461287788544,193,24,26'
p1
.S'1291218808266440704,195,29,41'
p1
.S'1291267616568152064,192,180,181'
p1
.S'1291321864609783808,194,15,16'
p1
.S'1291251318362677248,191,0,1'
p1
.S'1291204235748319232,143,0,1'
p1
.S'1291217664928518144,196,3,4'
p1
.S'1291195465295179776,196,33,34'
p1
.S'1291237039731523584,190,7,8'
p1
.S'1291257853524713472,196,2,3'
p1
.S'1291173923249324032,196,196,197'
p1
.S'1291175831128915968,196,0,1'
p1
.S'1291198923192537088,189,74,80'
p1
.S'1291182463133143040,196,2,3'
p1
.S'1291205534434869248,135,58,60'
p1
.S'1291176626042097664,195,85,93'
p1
.S'1291216802432581632,195,9,10'
p1
.S'1291218058244956160,176,24,25'
p1
.S'1291194006340247552,194,17,19'
p1
.S'1291198909255139328,184,11,12'
p1
.S'1291162541036376064,196,11,12'
p1
.S'1291215823381655552,194,45,46'
p1
.S'1291209507569094656,193,160,231'
p1
.S'1291258527327088640,193,70,72'
p1
.S'1291265046978371584,189,43,44'
p1
.S'1291182613742161920,194,20,21'
p1
.S'1291190962223284224,195,45,51'
p1
.S'1291194209302355968,195,100,101'
p1
.S'1291171883743584256,181,64,65'
p1
.S'1291239920823906304,196,135,174'
p1
.S'1291160465388777472,189,67,70'
p1
.S'1291209761408401408,196,41,42'
p1
.S'1291312650902478848,195,7,8'
p1
.S'1291160512608215040,194,132,139'
p1
.S'1291311565706231808,167,33,34'
p1
.S'1291179587648323584,195,98,111'
p1
.S'1291216326681333760,195,128,133'
p1
.S'1291216259656065024,165,109,118'
p1
.S'1291203861306298368,194,194,415'
p1
.S'1291262569168179200,194,0,1'
p1
.S'1291169852307980288,195,15,17'
p1
.S'1291299624199786496,190,80,81'
p1
.S'1291203660671803392,194,24,25'
p1
.S'1291178183185858560,176,81,214'
p1
.S'1291278975863308288,195,52,81'
p1
.S'1291187686199189504,195,26,31'
p1
.S'1291242792366280704,191,188,195'
p1
.S'1291169422215942144,193,4,5'
p1
.S'1281867050901532672,195,46,47'
p1
.S'1281907265582116864,169,8,11'
p1
.S'1282022967597289472,195,57,58'
p1
.S'1282025708016795648,163,0,1'
p1
.S'1281874693611532288,193,37,45'
p1
.S'1281979752458158080,193,0,1'
p1
.S'1281891401348886528,196,1,2'
p1
.S'1281906731425398784,178,38,51'
p1
.S'1281895663671918592,196,52,53'
p1
.S'1281860887099457536,193,2,3'
p1
.S'1281886907634470912,196,4,5'
p1
.S'1281979168556560384,196,47,48'
p1
.S'1282986409452023808,188,52,53'
p1
.S'1283079088399101952,195,38,39'
p1
.S'1283089820654485504,97,24,25'
p1
.S'1282975287277682688,195,2,3'
p1
.S'1283092305943175168,143,142,189'
p1
.S'1283081520592183296,195,1,2'
p1
.S'1283081717971927040,189,10,11'
p1
.S'1283069716730646528,190,15,16'
p1
.S'1282947850691043328,190,0,1'
p1
.S'1282927221459841024,189,33,50'
p1
.S'1282936607170867200,173,43,44'
p1
.S'1282967357907771392,196,11,12'
p1
.S'1282932700361170944,378,6,7'
p1
.S'1282936605136596992,182,4,5'
p1
.S'1283095340115197952,106,0,1'
p1
.S'1282960090072743936,195,0,1'
p1
.S'1283091589157343232,195,3,4'
p1
.S'1282930138744811520,195,7,14'
p1
.S'1282927218489794560,194,0,1'
p1
.S'1282962288575680512,187,100,105'
p1
.S'1282965669495361536,196,194,222'
p1
.S'1283100676607950848,195,62,65'
p1
.S'1283011228926689280,189,3,4'
p1
.S'1282980998317015040,194,4,5'
p1
.S'1282946200374538240,195,2,3'
p1
.S'1283098266359726080,150,36,37'
p1
.S'1283090492275699712,195,4,5'
p1
.S'1282948674766680064,195,25,31'
p1
.S'1282953243202330624,180,17,20'
p1
.S'1282940637402271744,190,8,9'
p1
.S'1282945934946877440,194,58,120'
p1
.S'1282960943449608192,195,3,4'
p1
.S'1282953132707622912,195,5,6'
p1
.S'1283101744255082496,195,2,3'
p1
.S'1283080653189062656,178,39,40'
p1
.S'1282978326746992640,195,1,2'
p1
.S'1282928835662635008,193,11,12'
p1
.S'1283067382835314688,186,64,66'
p1
.S'1282926720596738048,173,66,74'
p1
.S'1283100430255132672,187,5,6'
p1
.S'1283101905765666816,196,1,2'
p1
.S'1282978968265551872,195,47,49'
p1
.S'1283085809238818816,196,11,12'
p1
.S'1282977048377856000,196,25,26'
p1
.S'1282935701826097152,180,72,124'
p1
.S'1282953871299428352,170,4,5'
p1
.S'1283098477634994176,195,2,3'
p1
.S'1282946577916452864,195,0,1'
p1
.S'1282959425870643200,194,3,4'
p1
.S'1282930955694301184,116,2,3'
p1
.S'1282992232492113920,170,69,73'
p1
.S'1283078488508829696,192,3,4'
p1
.S'1282942704502104064,196,0,1'
p1
.S'1283101064069341184,194,98,99'
p1
.S'1282951515912507392,194,50,82'
p1
.S'1282966799171899392,196,179,180'
p1
.S'1283092957159219200,163,1,2'
p1
.S'1282927230112198656,195,10,11'
p1
.S'1283079312329097216,195,140,210'
p1
.S'1283080245578235904,194,71,73'
p1
.S'1283053125292982272,195,0,1'
p1
.S'1282931431614066688,195,70,93'
p1
.S'1283107870032257024,195,2,3'
p1
.S'1283101459583787008,195,1,2'
p1
.S'1282930915550896128,196,10,11'
p1
.S'1282930811574046720,187,81,91'
p1
.S'1283088066910793728,160,29,62'
p1
.S'1282977215080189952,196,195,196'
p1
.S'1282945293352382464,190,126,127'
p1
.S'1282958763078844416,179,32,34'
p1
.S'1282927050394640384,194,49,50'
p1
.S'1283055939141955584,187,0,1'
p1
.S'1282953450963238912,194,72,73'
p1
.S'1282978873616785408,187,71,78'
p1
.S'1283080487229145088,195,0,1'
p1
.S'1282937183179018240,180,16,17'
p1
.S'1283009494175604736,126,0,1'
p1
.S'1282974428979974144,195,0,1'
p1
.S'1282955899912286208,195,28,41'
p1
.S'1282968764899590144,193,0,1'
p1
.S'1282926468397260800,196,195,196'
p1
.S'1282950760988069888,177,107,108'
p1
.S'1282972239314493440,196,101,118'
p1
.S'1282941421657702400,196,15,17'
p1
.S'1282937821090471936,186,27,33'
p1
.S'1282944218750431232,196,1,2'
p1
.S'1282984396408197120,102,2,3'
p1
.S'1282941598019248128,195,0,1'
p1
.S'1283099376201453568,195,8,9'
p1
.S'1283091109626982400,195,54,59'
p1
.S'1283095999942422528,177,0,1'
p1
.S'1282975626042781696,194,10,11'
p1
.S'1282970039758807040,196,45,48'
p1
.S'1282927735807041536,192,0,1'
p1
.S'1294833222949253120,196,3,4'
p1
.S'1294776545394982912,194,4,5'
p1
.S'1294825480604028928,193,2,3'
p1
.S'1294833067176988672,196,27,28'
p1
.S'1294784282769936384,193,35,36'
p1
.S'1294806985753178112,196,53,54'
p1
.S'1294810999178039296,193,10,11'
p1
.S'1294835749748924417,186,108,109'
p1
.S'1294845238627745792,143,118,123'
p1
.S'1294782512824049664,196,112,176'
p1
.S'1294767895401893888,195,0,1'
p1
.S'1294826218595962880,193,4,5'
p1
.S'1294813567551725568,195,9,10'
p1
.S'1294734852213858304,194,0,1'
p1
.S'1294807446585593856,195,77,79'
p1
.S'1294802142519234560,185,130,152'
p1
.S'1294834759851261952,193,30,32'
p1
.S'1294825711374602240,196,112,113'
p1
.S'1294819945364242432,196,104,105'
p1
.S'1294824600089563136,195,1,2'
p1
.S'1294836838359535616,195,9,10'
p1
.S'1294778977218699264,173,6,7'
p1
.S'1294823916023754752,195,9,10'
p1
.S'1294809959925796864,181,81,83'
p1
.S'1294818389726220288,186,1,2'
p1
.S'1294733783148445696,164,15,16'
p1
.S'1294835910977961984,187,4,5'
p1
.S'1294809449776963584,195,78,79'
p1
.S'1294850801520594944,195,77,85'
p1
.S'1294816044879400960,195,8,10'
p1
.S'1294820388911624192,183,62,72'
p1
.S'1294731908118622208,193,0,1'
p1
.S'1294806935476277248,196,60,62'
p1
.S'1294824266873085952,195,112,117'
p1
.S'1294819856088297472,196,0,1'
p1
.S'1294782864403365888,196,21,23'
p1
.S'1294822972909322240,179,120,151'
p1
.S'1294767769035890688,196,155,156'
p1
.S'1294768916236812288,195,0,1'
p1
.S'1294766643926687744,146,43,44'
p1
.S'1294843946471956480,194,193,195'
p1
.S'1294776171963322368,179,105,108'
p1
.S'1294830699135815680,193,2,3'
p1
.S'1294763324495769600,133,17,19'
p1
.S'1294842697433145344,195,4,5'
p1
.S'1294762384086708224,195,65,73'
p1
.S'1294843373290934272,195,132,133'
p1
.S'1294769208571359232,178,171,237'
p1
.S'1294733332839813120,196,1,2'
p1
.S'1294755867945791488,196,7,8'
p1
.S'1294851321836806144,195,12,14'
p1
.S'1294755663800688640,179,12,13'
p1
.S'1294768200818585600,168,0,1'
p1
.S'1294731748135133184,196,0,1'
p1
.S'1294844933211082752,176,6,7'
p1
.S'1294805514768830464,195,76,80'
p1
.S'1294818234201423872,195,84,160'
p1
.S'1294839209793933312,54,5,6'
p1
.S'1294732862041825280,194,17,18'
p1
.S'1294756658668834816,181,4,5'
p1
.S'1294796968765603840,196,196,204'
p1
.S'1294742808544075776,189,6,7'
p1
.S'1294769845895901184,195,103,106'
p1
.S'1294824884635336704,196,79,82'
p1
.S'1294789150578569216,185,61,65'
p1
.S'1294845466974019584,190,114,118'
p1
.S'1294756542637551616,184,1,2'
p1
.S'1294784378274246656,173,80,125'
p1
.S'1294784904256741376,195,46,47'
p1
.S'1294832832706965504,194,79,81'
p1
.S'1294810478039941120,196,1,2'
p1
.S'1294810947583696896,196,36,41'
p1
.S'1294775046233276416,195,21,22'
p1
.S'1294822130164400128,194,1,2'
p1
.S'1294731899960733696,161,0,1'
p1
.S'1294776485097402368,196,112,115'
p1
.S'1294840135103463424,192,69,71'
p1
.S'1294823478549442560,195,7,9'
p1
.S'1294852866481229824,196,120,121'
p1
.S'1294769854968393728,193,56,58'
p1
.S'1294751310864084992,195,45,73'
p1
.S'1294830915784433664,162,41,42'
p1
.S'1294769257057804288,188,187,452'
p1
.S'1294737607162748928,190,4,5'
p1
.S'1294805648693141504,193,103,104'
p1
.S'1294854264908570624,196,31,34'
p1
.S'1294855060366725120,167,1,2'
p1
.S'1294761107021819904,183,16,17'
p1
.S'1294805918244048896,195,28,30'
p1
.S'1294770607439097856,186,0,1'
p1
.S'1294810544611676160,196,24,31'
p1
.S'1294831355074854912,196,4,5'
p1
.S'1294810523497574400,163,13,14'
p1
.S'1294762681454292992,173,8,9'
p1
.S'1294822167636221952,195,146,149'
p1
.S'1283939216727871488,181,9,10'
p1
.S'1283943000250200064,52,4,5'
p1
.S'1283968817416245248,196,162,164'
p1
.S'1283968155928117248,196,146,171'
p1
.S'1283940189836062720,193,19,20'
p1
.S'1283947485761019904,195,11,12'
p1
.S'1283908831394807808,195,87,98'
p1
.S'1283954098919698432,184,84,96'
p1
.S'1283929948641738752,114,1,2'
p1
.S'1283941151510515712,195,160,177'
p1
.S'1283927053494104064,192,40,41'
p1
.S'1283841889900109824,192,5,6'
p1
.S'1283913248613269504,196,2,3'
p1
.S'1283924985332822016,195,185,216'
p1
.S'1283965321715372032,188,42,43'
p1
.S'1283970553920847872,195,112,116'
p1
.S'1283920939511582720,189,49,54'
p1
.S'1283920034326048768,195,25,28'
p1
.S'1283965270641741824,181,105,106'
p1
.S'1283936782584889344,195,101,102'
p1
.S'1283948325556953088,196,187,190'
p1
.S'1283930766606307328,204,30,32'
p1
.S'1283873123024207872,187,23,25'
p1
.S'1283892514298261504,196,130,131'
p1
.S'1283916264036810752,196,4,5'
p1
.S'1283886651885965312,195,1,2'
p1
.S'1283872154366377984,190,166,168'
p1
.S'1283912521639923712,195,6,7'
p1
.S'1283915034816335872,175,0,1'
p1
.S'1283912257402982400,195,3,4'
p1
.S'1283805239212167168,194,26,27'
p1
.S'1283867364488085504,196,11,12'
p1
.S'1283857373143900160,181,67,68'
p1
.S'1283922259475619840,180,134,145'
p1
.S'1283825358856413184,193,85,93'
p1
.S'1283869671434661888,196,196,197'
p1
.S'1283879073042575360,195,13,14'
p1
.S'1283903384428154880,196,10,11'
p1
.S'1283895212292321280,116,50,51'
p1
.S'1283875946939977728,186,9,10'
p1
.S'1283911312661164032,181,0,1'
p1
.S'1283882959191375872,174,90,92'
p1
.S'1283847961596067840,156,2,3'
p1
.S'1283898493555146752,194,49,50'
p1
.S'1283879511183822848,195,131,132'
p1
.S'1283858192018960384,92,84,146'
p1
.S'1283805677231534080,195,12,13'
p1
.S'1283824496788611072,196,26,29'
p1
.S'1283879746937184256,189,2,3'
p1
.S'1283843363996848128,172,0,1'
p1
.S'1283805414785495040,186,92,142'
p1
.S'1283918290049241088,144,16,17'
p1
.S'1283913248613269504,196,2,3'
p1
.S'1283878883904946176,192,47,76'
p1
.S'1283821926070255616,192,175,182'
p1
.S'1283907755732094976,192,192,562'
p1
.S'1283890549233283072,196,60,62'
p1
.S'1283882962878160896,161,0,1'
p1
.S'1283916995997597696,196,31,33'
p1
.S'1283864570083037184,195,1,2'
p1
.S'1283816990775312384,195,9,10'
p1
.S'1283869204092694528,196,0,1'
p1
.S'1283798155087241216,183,7,8'
p1
.S'1283920939511582720,189,49,54'
p1
.S'1283922897207193600,191,6,7'
p1
.S'1283814070415503360,195,2,3'
p1
.S'1283901197530640384,180,138,260'
p1
.S'1283917313418104832,174,18,23'
p1
.S'1283870751530909696,195,141,262'
p1
.S'1283810851199537152,196,0,1'
p1
.S'1283774260271620096,156,50,93'
p1
.S'1283869460490805248,193,1,2'
p1
.S'1283918058238500864,192,13,14'
p1
.S'1283878305346510848,195,15,16'
p1
.S'1283862843451924480,192,7,8'
p1
.S'1283912001944481792,196,11,12'
p1
.S'1283869140842860544,195,4,5'
p1
.S'1283856821085765632,171,0,1'
p1
.S'1283892504374706176,181,1,2'
p1
.S'1283887046792298496,178,0,1'
p1
.S'1283898936192831488,193,46,48'
p1
.S'1283915924038176768,193,47,62'
p1
.S'1283920034326048768,195,25,28'
p1
.S'1283921420363169792,193,36,47'
p1
.S'1283891475427844096,195,34,58'
p1
.S'1283872058568601600,193,110,111'
p1
.S'1283896777845645312,190,123,210'
p1
.S'1283914210950651904,185,70,104'
p1
.S'1283871990196920320,143,5,6'
p1
.S'1283882322441723904,174,85,92'
p1
.S'1283919177975463936,195,176,278'
p1
.S'1283817744814796800,195,1,2'
p1
.S'1283908338983329792,181,0,1'
p1
.S'1283761850806665216,196,60,61'
p1
.S'1283883034265452544,190,34,47'
p1
.S'1283814495340421120,193,69,71'
p1
.S'1283839263959613440,195,1,2'
p1
.S'1283914669488254976,196,138,149'
p1
.S'1283841889900109824,192,5,6'
p1
.S'1283889008980197376,194,64,65'
p1
.S'1283869456464527360,159,156,215'
p1
.S'1283904026001678336,123,0,1'
p1
.S'1283844643486134272,195,14,16'
p1
.S'1283821162220097536,196,80,105'
p1
.S'1283881332699234304,196,1,2'
p1
.S'1283814635602059264,192,169,213'
p1
.S'1283907831032098816,195,118,130'
p1
.S'1283860181910171648,196,1,2'
p1
.S'1283269352401092608,195,0,1'
p1
.S'1283275512004886528,162,0,1'
p1
.S'1283285975883218944,179,0,1'
p1
.S'1283266083696361472,155,0,1'
p1
.S'1283262990052909056,166,102,122'
p1
.S'1283298694716362752,160,12,13'
p1
.S'1283276351281446912,182,43,44'
p1
.S'1283278990362185728,187,62,63'
p1
.S'1283333022338686976,196,21,22'
p1
.S'1283438617410605056,195,2,3'
p1
.S'1283302718643085312,194,54,55'
p1
.S'1283323272087445504,193,60,63'
p1
.S'1283292627999268864,191,14,15'
p1
.S'1283277447957209088,192,45,193'
p1
.S'1283290250843725824,145,145,151'
p1
.S'1283280848825049088,187,0,1'
p1
.S'1283278819142848512,194,21,23'
p1
.S'1283285951413641216,196,111,112'
p1
.S'1283296452592197632,170,2,3'
p1
.S'1283267070628610048,195,87,113'
p1
.S'1283276426946686976,195,10,11'
p1
.S'1283340238915530752,194,24,25'
p1
.S'1283338617380642816,196,193,228'
p1
.S'1283316816877608960,195,4,5'
p1
.S'1283321938986795008,195,63,81'
p1
.S'1283267234525036544,196,2,3'
p1
.S'1283277604203945984,196,182,192'
p1
.S'1283279205727199232,192,39,45'
p1
.S'1283268291233796096,195,65,66'
p1
.S'1283267778102898688,194,46,50'
p1
.S'1283309410617524224,195,4,5'
p1
.S'1283805919947980800,193,13,14'
p1
.S'1283878883904946176,192,47,76'
p1
.S'1283835085753397248,184,3,4'
p1
.S'1283867364488085504,196,11,12'
p1
.S'1283871470711607296,196,182,200'
p1
.S'1283863370386292736,196,98,102'
p1
.S'1283843363996848128,172,0,1'
p1
.S'1283869204092694528,196,0,1'
p1
.S'1283851181281988608,183,22,23'
p1
.S'1283792729377800192,195,190,360'
p1
.S'1283708661063364608,195,0,1'
p1
.S'1283821926070255616,192,175,182'
p1
.S'1283817744814796800,195,1,2'
p1
.S'1283860181910171648,196,1,2'
p1
.S'1283808995496579072,193,30,34'
p1
.S'1283869140842860544,195,4,5'
p1
.S'1283832895424892928,196,3,4'
p1
.S'1283879073042575360,195,13,14'
p1
.S'1283816408576585728,195,28,30'
p1
.S'1283711658132672512,173,3,4'
p1
.S'1283870751530909696,195,141,262'
p1
.S'1283856821085765632,171,0,1'
p1
.S'1283872154366377984,190,166,168'
p1
.S'1283812083464593408,195,15,17'
p1
.S'1283798155087241216,183,7,8'
p1
.S'1283876312146219008,177,81,82'
p1
.S'1283868605393862656,193,72,73'
p1
.S'1283795598877294592,180,178,196'
p1
.S'1283828156708667392,170,86,99'
p1
.S'1283832000973058048,195,157,160'
p1
.S'1283882959191375872,174,90,92'
p1
.S'1283856886248239104,189,41,43'
p1
.S'1283878305346510848,195,15,16'
p1
.S'1283839263959613440,195,1,2'
p1
.S'1283848644235558912,160,0,1'
p1
.S'1283868049766031360,195,51,59'
p1
.S'1283825358856413184,193,85,93'
p1
.S'1283774181003153408,196,37,38'
p1
.S'1283868616307499008,195,181,411'
p1
.S'1283868323641221120,195,123,129'
p1
.S'1283805413954969600,195,82,106'
p1
.S'1283875946939977728,186,9,10'
p1
.S'1283774260271620096,156,50,93'
p1
.S'1283869456464527360,159,156,215'
p1
.S'1283850313681584128,195,29,31'
p1
.S'1283871990196920320,143,5,6'
p1
.S'1283859764484710400,119,119,120'
p1
.S'1283841889900109824,192,5,6'
p1
.S'1283805239212167168,194,26,27'
p1
.S'1283725370772156416,193,1,2'
p1
.S'1283816990775312384,195,9,10'
p1
.S'1283845321574776832,195,45,60'
p1
.S'1283814635602059264,192,169,213'
p1
.S'1283858192018960384,92,84,146'
p1
.S'1283827404200189952,163,13,14'
p1
.S'1283847006502703104,195,11,12'
p1
.S'1283814495340421120,193,69,71'
p1
.S'1283831420452257792,196,8,9'
p1
.S'1283705426587889664,133,87,88'
p1
.S'1283821162220097536,196,80,105'
p1
.S'1283847961596067840,156,2,3'
p1
.S'1283841112062480384,195,7,8'
p1
.S'1283873123024207872,187,23,25'
p1
.S'1283761850806665216,196,60,61'
p1
.S'1283876426638569472,187,11,12'
p1
.S'1283844643486134272,195,14,16'
p1
.S'1283830479825063936,196,5,6'
p1
.S'1283882962878160896,161,0,1'
p1
.S'1283810851199537152,196,0,1'
p1
.S'1283883687687471104,195,0,1'
p1
.S'1283826521509195776,159,9,10'
p1
.S'1283883034265452544,190,34,47'
p1
.S'1283864570083037184,195,1,2'
p1
.S'1283883209389973504,195,14,15'
p1
.S'1283869460490805248,193,1,2'
p1
.S'1283861326678339584,100,0,1'
p1
.S'1283740144553377792,158,4,5'
p1
.S'1283805677231534080,195,12,13'
p1
.S'1283861163091931136,152,103,106'
p1
.S'1283841854198431744,158,8,9'
p1
.S'1283787553484820480,195,39,40'
p1
.S'1283852642556289024,194,13,14'
p1
.S'1283869942894247936,188,40,41'
p1
.S'1283736234929643520,196,2,3'
p1
.S'1283824496788611072,196,26,29'
p1
.S'1283879511183822848,195,131,132'
p1
.S'1283869671434661888,196,196,197'
p1
.S'1283729491210153984,195,19,21'
p1
.S'1283805414785495040,186,92,142'
p1
.S'1283862843451924480,192,7,8'
p1
.S'1283872058568601600,193,110,111'
p1
.S'1283865106325135360,181,6,7'
p1
.S'1283879746937184256,189,2,3'
p1
.S'1283857373143900160,181,67,68'
p1
.S'1282499573650227200,195,2,3'
p1
.S'1282414371473424384,168,68,69'
p1
.S'1282460961571577856,195,127,174'
p1
.S'1282468042151981056,187,60,61'
p1
.S'1282444396440268800,195,160,284'
p1
.S'1282492645167554560,196,84,101'
p1
.S'1282370089459015680,195,6,8'
p1
.S'1282468824188424192,196,6,7'
p1
.S'1282514487110963200,196,7,8'
p1
.S'1282513131121819648,195,2,3'
p1
.S'1282462921959583744,196,69,101'
p1
.S'1282437243990110208,196,173,224'
p1
.S'1282439325518610432,196,1,2'
p1
.S'1282532160074919936,195,4,5'
p1
.S'1282506246297427968,156,14,26'
p1
.S'1282468039862226944,195,77,81'
p1
.S'1289713387424915456,194,165,189'
p1
.S'1289640829119524864,195,127,130'
p1
.S'1289734194964164608,174,26,28'
p1
.S'1289723966604402688,196,0,1'
p1
.S'1289698148130164736,181,61,63'
p1
.S'1289735161780568064,195,3,4'
p1
.S'1289732506266284032,194,95,233'
p1
.S'1289733338705600512,195,57,58'
p1
.S'1289673454748135424,195,0,1'
p1
.S'1289681821046804480,195,4,5'
p1
.S'1289683066406785024,196,7,8'
p1
.S'1289714350843891712,172,12,15'
p1
.S'1289683116142833664,170,73,78'
p1
.S'1289734200672813056,171,2,3'
p1
.S'1289709349778108416,189,23,24'
p1
.S'1289658096981032960,195,56,61'
p1
.S'1289730197016457216,179,171,347'
p1
.S'1289651073853894656,194,155,247'
p1
.S'1289723856419954688,151,2,3'
p1
.S'1289600358934552576,188,7,8'
p1
.S'1289704893250453504,194,13,14'
p1
.S'1289678908119220224,194,25,26'
p1
.S'1289725094901497856,195,195,214'
p1
.S'1289679582542561280,194,4,5'
p1
.S'1289711404110217216,181,43,44'
p1
.S'1289679720274919424,181,112,116'
p1
.S'1289727590256603136,195,108,110'
p1
.S'1289711719534764032,196,76,78'
p1
.S'1289727698754785280,195,0,1'
p1
.S'1289690781372010496,195,48,49'
p1
.S'1289734352821178368,195,27,28'
p1
.S'1289703954879504384,196,0,1'
p1
.S'1289647492635721728,196,39,43'
p1
.S'1289716586856513536,181,52,56'
p1
.S'1289629378409799680,183,141,144'
p1
.S'1289712451222413312,179,0,1'
p1
.S'1289714817774542848,191,48,49'
p1
.S'1289726474878058496,196,130,134'
p1
.S'1289690246396944384,195,14,15'
p1
.S'1289705067074998272,175,0,1'
p1
.S'1289590587393236992,195,23,29'
p1
.S'1289620986769358848,195,0,1'
p1
.S'1289715580747874304,150,114,166'
p1
.S'1289662089295974400,181,0,1'
p1
.S'1289702135210172416,195,11,12'
p1
.S'1289696843059589120,195,50,51'
p1
.S'1289704053055868928,147,1,2'
p1
.S'1289692423710466048,196,0,1'
p1
.S'1289677377114394624,195,117,119'
p1
.S'1289683730797309952,192,1,2'
p1
.S'1289705094937767936,196,8,9'
p1
.S'1289618034008719360,195,7,10'
p1
.S'1289719444519735296,159,30,34'
p1
.S'1289596308432527360,195,195,196'
p1
.S'1289697710403948544,190,36,37'
p1
.S'1289727610124976128,106,1,2'
p1
.S'1289636156795195392,191,0,1'
p1
.S'1289687375890526208,192,33,34'
p1
.S'1289610081117597696,195,150,158'
p1
.S'1289652162838036480,195,195,688'
p1
.S'1289666806319308800,187,40,45'
p1
.S'1289663466004729856,185,63,64'
p1
.S'1289622489647161344,178,1,2'
p1
.S'1289684628000690176,196,15,16'
p1
.S'1289689177578950656,195,0,1'
p1
.S'1289727783379279872,191,118,119'
p1
.S'1289679099912200192,194,9,11'
p1
.S'1289725979987759104,195,113,146'
p1
.S'1289687794003988480,196,73,78'
p1
.S'1289648857491398656,193,88,90'
p1
.S'1289639158561800192,168,61,62'
p1
.S'1289662774272004096,195,69,71'
p1
.S'1289619914939908096,189,17,18'
p1
.S'1289657487125291008,196,131,132'
p1
.S'1289626234103427072,177,1,2'
p1
.S'1289711131958882304,195,10,11'
p1
.S'1289642751062884352,193,0,1'
p1
.S'1289696618224181248,196,102,136'
p1
.S'1289686248617082880,182,23,26'
p1
.S'1289735033753661440,195,2,3'
p1
.S'1289667036360097792,195,11,12'
p1
.S'1289732103931863040,196,4,5'
p1
.S'1289712170053320704,195,121,145'
p1
.S'1289717813245857792,145,0,1'
p1
.S'1289717535016951808,193,60,61'
p1
.S'1289699494245605376,151,16,23'
p1
.S'1289711340012957696,179,155,159'
p1
.S'1289654275722612736,193,8,9'
p1
.S'1289673230696992768,158,3,4'
p1
.S'1289689017516171264,195,4,5'
p1
.S'1289728695590088704,195,79,121'
p1
.S'1289718176086630400,196,108,116'
p1
.S'1289714342685765632,195,43,48'
p1
.S'1289619553131089920,195,0,1'
p1
.S'1289618027498913792,195,127,271'
p1
.S'1289651726093570048,191,184,192'
p1
.S'1289731253327015936,189,41,42'
p1
.S'1289715254972022784,195,6,7'
p1
.S'1283105926336929792,194,0,1'
p1
.S'1282997153685729280,157,0,1'
p1
.S'1283067382835314688,186,64,66'
p1
.S'1282965669495361536,196,194,222'
p1
.S'1282953450963238912,194,72,73'
p1
.S'1283079088399101952,195,38,39'
p1
.S'1282975287277682688,195,2,3'
p1
.S'1283114225354620928,195,195,196'
p1
.S'1282955899912286208,195,28,41'
p1
.S'1282966799171899392,196,179,180'
p1
.S'1283112218413903872,195,0,1'
p1
.S'1282992232492113920,170,69,73'
p1
.S'1283079312329097216,195,140,210'
p1
.S'1282960943449608192,195,3,4'
p1
.S'1283119003493122048,195,114,342'
p1
.S'1282986409452023808,188,52,53'
p1
.S'1282974428979974144,195,0,1'
p1
.S'1283009494175604736,126,0,1'
p1
.S'1283081717971927040,189,10,11'
p1
.S'1283107870032257024,195,2,3'
p1
.S'1282970039758807040,196,45,48'
p1
.S'1283053125292982272,195,0,1'
p1
.S'1283091589157343232,195,3,4'
p1
.S'1283127418815131648,196,35,36'
p1
.S'1283080487229145088,195,0,1'
p1
.S'1283069716730646528,190,15,16'
p1
.S'1283112524338151424,196,5,6'
p1
.S'1283092305943175168,143,142,189'
p1
.S'1282953871299428352,170,4,5'
p1
.S'1282977215080189952,196,195,196'
p1
.S'1283110162600714240,194,19,23'
p1
.S'1283130385794330624,195,0,1'
p1
.S'1282978968265551872,195,47,49'
p1
.S'1283121020647694336,195,21,30'
p1
.S'1283121450911662080,194,43,48'
p1
.S'1283091109626982400,195,54,59'
p1
.S'1283100676607950848,195,62,65'
p1
.S'1282953243202330624,180,17,20'
p1
.S'1283118806172098560,167,119,121'
p1
.S'1283114556981657600,195,1,2'
p1
.S'1283111981112770560,192,2,3'
p1
.S'1283089820654485504,97,24,25'
p1
.S'1283055939141955584,187,0,1'
p1
.S'1283080653189062656,178,39,40'
p1
.S'1283092957159219200,163,1,2'
p1
.S'1283090492275699712,195,4,5'
p1
.S'1283123946736259072,177,2,3'
p1
.S'1283131811224002560,181,0,1'
p1
.S'1283081520592183296,195,1,2'
p1
.S'1283108518177984512,195,32,33'
p1
.S'1283133415931207680,151,10,11'
p1
.S'1282953132707622912,195,5,6'
p1
.S'1282978873616785408,187,71,78'
p1
.S'1282978326746992640,195,1,2'
p1
.S'1283101459583787008,195,1,2'
p1
.S'1283108697052467200,195,132,196'
p1
.S'1283118015152025600,196,0,1'
p1
.S'1283095999942422528,177,0,1'
p1
.S'1283011228926689280,189,3,4'
p1
.S'1283106022529576960,195,0,1'
p1
.S'1282980998317015040,194,4,5'
p1
.S'1283098477634994176,195,2,3'
p1
.S'1283129552344145920,194,0,1'
p1
.S'1282960867759407104,175,63,64'
p1
.S'1283128328584622080,195,0,1'
p1
.S'1282962288575680512,187,100,105'
p1
.S'1283101744255082496,195,2,3'
p1
.S'1282975626042781696,194,10,11'
p1
.S'1283080245578235904,194,71,73'
p1
.S'1283118984962945024,194,62,91'
p1
.S'1283116763571441664,180,117,119'
p1
.S'1282968764899590144,193,0,1'
p1
.S'1283131716244262912,195,6,7'
p1
.S'1283088066910793728,160,29,62'
p1
.S'1283115706225213440,195,1,2'
p1
.S'1282977048377856000,196,25,26'
p1
.S'1283127856654086144,181,12,13'
p1
.S'1282968548335398912,157,67,71'
p1
.S'1282958763078844416,179,32,34'
p1
.S'1282960090072743936,195,0,1'
p1
.S'1283085809238818816,196,11,12'
p1
.S'1282959425870643200,194,3,4'
p1
.S'1282984396408197120,102,2,3'
p1
.S'1283101064069341184,194,98,99'
p1
.S'1283128019607085056,195,0,1'
p1
.S'1282967153624444928,195,0,1'
p1
.S'1283217070691164160,196,67,474'
p1
.S'1283228184867213312,195,12,13'
p1
.S'1283217272789954560,196,1,2'
p1
.S'1283250234956369920,196,161,324'
p1
.S'1283306653860904960,183,59,60'
p1
.S'1283302718643085312,194,54,55'
p1
.S'1283233389444497408,188,0,1'
p1
.S'1283259295739596800,195,59,60'
p1
.S'1283217930691739648,195,39,41'
p1
.S'1283243997732687872,177,12,13'
p1
.S'1283215966385668096,177,1,2'
p1
.S'1283217580408315904,192,15,16'
p1
.S'1283238382684008448,195,40,41'
p1
.S'1283216205150662656,167,49,50'
p1
.S'1282240092857049088,195,0,1'
p1
.S'1282174835841204224,195,28,29'
p1
.S'1282283698548576256,196,15,16'
p1
.S'1282184709950345216,184,26,27'
p1
.S'1282210275105886208,181,9,10'
p1
.S'1282247361078415360,177,0,1'
p1
.S'1282177768624713728,193,3,4'
p1
.S'1282276701791227904,195,35,36'
p1
.S'1282238725530828800,195,74,113'
p1
.S'1282248090241372160,204,82,84'
p1
.S'1282208642053599232,196,1,2'
p1
.S'1282206798807785472,179,0,1'
p1
.S'1282237237488185344,191,90,99'
p1
.S'1282255825372635136,195,24,25'
p1
.S'1282339238872002560,175,0,1'
p1
.S'1282184149746733056,187,76,111'
p1
.S'1282461310953070592,196,80,82'
p1
.S'1282564127440932864,194,0,1'
p1
.S'1282501259215654912,195,169,175'
p1
.S'1282291008566124544,196,53,54'
p1
.S'1282183367848497152,195,84,98'
p1
.S'1282208642053599232,196,1,2'
p1
.S'1282177768624713728,193,3,4'
p1
.S'1282191635333390336,195,1,2'
p1
.S'1282200236475432960,196,3,4'
p1
.S'1282222360841363456,195,46,63'
p1
.S'1282304860640944128,195,0,1'
p1
.S'1282206798807785472,179,0,1'
p1
.S'1282223326210752512,195,52,53'
p1
.S'1282177479653625856,164,129,136'
p1
.S'1282204749714096128,195,0,1'
p1
.S'1282184149746733056,187,76,111'
p1
.S'1282184475937333248,124,19,20'
p1
.S'1282242406808748032,184,28,29'
p1
.S'1282491511422210048,195,0,1'
p1
.S'1282489954962124800,168,0,1'
p1
.S'1282458541143764992,196,45,54'
p1
.S'1282462375005876224,193,36,73'
p1
.S'1282433335825686528,195,129,130'
p1
.S'1282404465169006592,182,24,26'
p1
.S'1282479718586798080,184,1,2'
p1
.S'1282480778172911616,195,20,21'
p1
.S'1282487198373302272,191,12,14'
p1
.S'1282468261359157248,196,6,7'
p1
.S'1282463621871804416,195,81,83'
p1
.S'1282455375584821248,195,39,40'
p1
.S'1282466487206064128,196,38,39'
p1
.S'1282461550615629824,195,11,12'
p1
.S'1282420684852699136,152,16,19'
p1
.S'1282406179284877312,39,0,1'
p1
.S'1282437243990110208,196,173,224'
p1
.S'1282416254342291456,191,98,107'
p1
.S'1282405745698684929,195,31,39'
p1
.S'1282432768781463552,195,152,160'
p1
.S'1282593259826663424,195,33,34'
p1
.S'1282560113592729600,196,64,65'
p1
.S'1282508964562862080,196,61,64'
p1
.S'1282514046020739072,195,7,9'
p1
.S'1282515232698535936,194,31,34'
p1
.S'1282508283973894144,195,1,2'
p1
.S'1282545483340005376,196,62,64'
p1
.S'1282593396242415616,189,165,167'
p1
.S'1282613844103303168,196,2,3'
p1
.S'1282519331980627968,155,1,2'
p1
.S'1282520525771874304,195,9,10'
p1
.S'1282589785768226816,181,1,2'
p1
.S'1282535429006106624,194,0,1'
p1
.S'1282550112895279104,188,188,201'
p1
.S'1282508294237339648,194,0,1'
p1
.S'1282572891682156544,196,114,116'
p1
.S'1282515198326038528,196,63,64'
p1
.S'1282614239118467072,194,35,37'
p1
.S'1294180748663930880,196,1,2'
p1
.S'1294145546637967360,162,11,12'
p1
.S'1294193427277336576,196,0,1'
p1
.S'1294153892447326208,156,127,128'
p1
.S'1294174403684638720,187,22,24'
p1
.S'1294180453657595904,196,137,139'
p1
.S'1294161029017804800,133,4,5'
p1
.S'1294211828796338176,196,110,158'
p1
.S'1294136891393941504,178,53,59'
p1
.S'1294208548515028992,190,32,35'
p1
.S'1294152696521482240,194,43,85'
p1
.S'1294209942789730304,194,67,68'
p1
.S'1294201216963854336,191,55,126'
p1
.S'1294217954652725248,195,0,1'
p1
.S'1294184260525555712,195,1,2'
p1
.S'1294139123879329792,170,121,127'
p1
.S'1294277894679470080,154,111,112'
p1
.S'1294132567439998976,195,1,2'
p1
.S'1294181687433043968,195,16,17'
p1
.S'1294181083235205120,196,51,54'
p1
.S'1294241458039238656,169,142,148'
p1
.S'1294137628014559232,195,35,37'
p1
.S'1294138532503379968,195,137,143'
p1
.S'1294168922622488576,152,31,32'
p1
.S'1294238621112930304,191,0,1'
p1
.S'1294289401433747456,195,147,148'
p1
.S'1294135196790288384,194,0,1'
p1
.S'1294202074221125632,182,16,17'
p1
.S'1294155177288515584,187,12,13'
p1
.S'1294180779278352384,191,113,118'
p1
.S'1294157327251001344,194,1,2'
p1
.S'1294174958544928768,182,143,163'
p1
.S'1294210298567348224,180,132,133'
p1
.S'1294141968775249920,191,140,147'
p1
.S'1294242719996276736,193,62,71'
p1
.S'1294172409074708480,192,192,196'
p1
.S'1294231839413805056,196,122,141'
p1
.S'1294156026651774976,194,27,28'
p1
.S'1294154159045709824,160,2,3'
p1
.S'1294200036175101952,195,1,2'
p1
.S'1294145404916629504,195,67,70'
p1
.S'1294214719691173888,190,0,1'
p1
.S'1294201010080075776,150,4,5'
p1
.S'1294141768459247616,196,7,8'
p1
.S'1294260790165180416,196,9,11'
p1
.S'1294134732854308864,179,37,40'
p1
.S'1294160452380733440,170,26,31'
p1
.S'1294183204768604160,195,1,2'
p1
.S'1294165424858341376,195,13,15'
p1
.S'1294207028004548608,193,48,49'
p1
.S'1294192629441241088,195,195,299'
p1
.S'1294170127608246272,195,97,124'
p1
.S'1294166672978419712,196,50,51'
p1
.S'1294147773943398400,195,1,2'
p1
.S'1294146437294252032,192,113,117'
p1
.S'1294143118253416448,196,41,43'
p1
.S'1294202353452531712,196,182,462'
p1
.S'1294185774262145024,196,1,2'
p1
.S'1294165380776239104,191,8,9'
p1
.S'1294183494376951808,196,121,145'
p1
.S'1294223852653957120,116,96,97'
p1
.S'1294157483275132928,193,79,82'
p1
.S'1294141484374822912,192,140,144'
p1
.S'1294148702449340416,195,6,7'
p1
.S'1294247492472455168,195,132,154'
p1
.S'1294156214435028992,195,116,120'
p1
.S'1294163559865290752,195,39,43'
p1
.S'1294192807204081664,171,84,116'
p1
.S'1294153797954048000,194,62,63'
p1
.S'1294153075858251776,181,0,1'
p1
.S'1294195807217942528,153,3,4'
p1
.S'1294139644207828992,189,60,64'
p1
.S'1294199262158389248,193,5,6'
p1
.S'1294157167473090560,186,15,17'
p1
.S'1294198793063018496,191,26,27'
p1
.S'1294146879550107648,195,4,5'
p1
.S'1294153981811179520,195,87,89'
p1
.S'1294169081121243136,194,122,190'
p1
.S'1294138098267185152,159,24,25'
p1
.S'1294172564494635008,194,49,51'
p1
.S'1294185149768310784,145,0,1'
p1
.S'1294149913990836224,173,168,170'
p1
.S'1294238623004241920,195,141,142'
p1
.S'1294225728048865280,195,127,128'
p1
.S'1294155777061302272,185,100,111'
p1
.S'1294204910795165696,193,0,1'
p1
.S'1294193664532385792,141,12,15'
p1
.S'1294225994034638848,196,196,405'
p1
.S'1294240861940555776,193,6,7'
p1
.S'1283193850638544896,195,4,5'
p1
.S'1283080487229145088,195,0,1'
p1
.S'1283170074039599104,194,168,172'
p1
.S'1283157868396331008,181,4,5'
p1
.S'1283167214379606016,148,21,22'
p1
.S'1283145047273324544,185,174,186'
p1
.S'1283112218413903872,195,0,1'
p1
.S'1283112524338151424,196,5,6'
p1
.S'1283209726880264192,138,1,2'
p1
.S'1283111981112770560,192,2,3'
p1
.S'1283194311445479424,195,10,11'
p1
.S'1283107870032257024,195,2,3'
p1
.S'1283131716244262912,195,6,7'
p1
.S'1283166388525445120,196,79,97'
p1
.S'1283203717356830720,190,18,20'
p1
.S'1283207205264728064,179,0,1'
p1
.S'1283137217841209344,188,9,10'
p1
.S'1283118175454158848,195,119,121'
p1
.S'1283181916442824704,151,13,18'
p1
.S'1283129552344145920,194,0,1'
p1
.S'1283136946700423168,165,2,3'
p1
.S'1283203690320756736,178,36,37'
p1
.S'1283207135576645632,192,14,15'
p1
.S'1283189740266831872,179,56,57'
p1
.S'1282906742140854272,17,0,1'
p1
.S'1282966799171899392,196,179,180'
p1
.S'1282899490558861312,196,18,19'
p1
.S'1283080245578235904,194,71,73'
p1
.S'1283143521423040512,196,16,17'
p1
.S'1283181916442824704,151,13,18'
p1
.S'1283089820654485504,97,24,25'
p1
.S'1283053125292982272,195,0,1'
p1
.S'1283079088399101952,195,38,39'
p1
.S'1283170074039599104,194,168,172'
p1
.S'1283140371526369280,163,155,170'
p1
.S'1283080653189062656,178,39,40'
p1
.S'1283180650123624448,195,14,15'
p1
.S'1283012998927114240,196,103,104'
p1
.S'1283127856654086144,181,12,13'
p1
.S'1283166906542624768,193,148,154'
p1
.S'1283081717971927040,189,10,11'
p1
.S'1283144794683641856,204,24,25'
p1
.S'1283136946700423168,165,2,3'
p1
.S'1283080487229145088,195,0,1'
p1
.S'1283079312329097216,195,140,210'
p1
.S'1283153059639898112,195,74,75'
p1
.S'1283119003493122048,195,114,342'
p1
.S'1283181356151099392,152,5,6'
p1
.S'1283140802553978880,193,9,11'
p1
.S'1283118015152025600,196,0,1'
p1
.S'1283150272000057344,195,137,141'
p1
.S'1283174270050488320,196,131,132'
p1
.S'1283174097295437824,177,39,48'
p1
.S'1283011228926689280,189,3,4'
p1
.S'1283128328584622080,195,0,1'
p1
.S'1283111981112770560,192,2,3'
p1
.S'1283078488508829696,192,3,4'
p1
.S'1283175368731574272,183,6,7'
p1
.S'1283112524338151424,196,5,6'
p1
.S'1283166388525445120,196,79,97'
p1
.S'1283095999942422528,177,0,1'
p1
.S'1283157868396331008,181,4,5'
p1
.S'1283134478587752448,196,3,4'
p1
.S'1283114556981657600,195,1,2'
p1
.S'1283134634645139456,129,3,4'
p1
.S'1283101459583787008,195,1,2'
p1
.S'1283121020647694336,195,21,30'
p1
.S'1282038118668734464,151,29,30'
p1
.S'1282038710317293568,195,92,99'
p1
.S'1282050557598920704,195,71,74'
p1
.S'1282047734551121920,193,86,110'
p1
.S'1282029930972180480,189,0,1'
p1
.S'1282041890086514688,195,183,187'
p1
.S'1282064014960459776,196,13,14'
p1
.S'1281979752458158080,193,0,1'
p1
.S'1281978910749442048,193,138,139'
p1
.S'1282069181629706240,195,18,20'
p1
.S'1282041215776370688,193,12,13'
p1
.S'1282042313698660352,162,38,41'
p1
.S'1282056238645039104,175,13,14'
p1
.S'1282044749116768256,179,128,131'
p1
.S'1281898107122384896,138,112,113'
p1
.S'1282051944134950912,194,4,5'
p1
.S'1282051158839865344,193,7,9'
p1
.S'1283575274696830976,196,0,1'
p1
.S'1283549460140044288,196,1,2'
p1
.S'1283573675903651840,196,32,34'
p1
.S'1283524509718237184,180,180,181'
p1
.S'1283571192036470784,196,39,41'
p1
.S'1283534704033042432,195,0,1'
p1
.S'1283475874443837440,163,3,4'
p1
.S'1283527688845676544,182,137,139'
p1
.S'1282221893164118016,195,2,3'
p1
.S'1282202844480577536,196,36,257'
p1
.S'1282376300996304896,164,0,1'
p1
.S'1282228977678872576,195,34,36'
p1
.S'1282243177176363008,195,134,135'
p1
.S'1282358716817428480,184,131,152'
p1
.S'1282255825372635136,195,24,25'
p1
.S'1282273035176546304,118,64,67'
p1
.S'1282353026186784768,135,0,1'
p1
.S'1282290070765928448,193,118,142'
p1
.S'1282228847974514688,195,38,39'
p1
.S'1282258235076022272,195,12,13'
p1
.S'1282247066412257280,170,109,154'
p1
.S'1282238725530828800,195,74,113'
p1
.S'1282375652049604608,195,14,15'
p1
.S'1282219780337799168,192,89,90'
p1
.S'1282207972420354048,196,144,156'
p1
.S'1282414371473424384,168,68,69'
p1
.S'1282504995425644544,195,1,2'
p1
.S'1282484984426942464,195,1,2'
p1
.S'1282487198373302272,191,12,14'
p1
.S'1282468824188424192,196,6,7'
p1
.S'1282480276169428992,196,146,147'
p1
.S'1282468039862226944,195,77,81'
p1
.S'1282452973556998144,194,11,13'
p1
.S'1282429222262398976,134,2,3'
p1
.S'1282330699218993152,190,166,230'
p1
.S'1282475328627212288,194,102,112'
p1
.S'1282503124032348160,196,0,1'
p1
.S'1282477122401206272,195,101,102'
p1
.S'1282481156809789440,195,6,7'
p1
.S'1283635812772327424,196,43,52'
p1
.S'1283623873078059008,193,13,14'
p1
.S'1283622122581065728,195,195,1479'
p1
.S'1283609428524208128,191,13,14'
p1
.S'1283649999498567680,193,0,1'
p1
.S'1283566647264890880,195,1,2'
p1
.S'1283602978066345984,195,81,84'
p1
.S'1283592274412191744,196,17,19'
p1
.S'1283603552417521664,194,59,71'
p1
.S'1283577756688740352,196,12,13'
p1
.S'1283625901275713536,174,105,106'
p1
.S'1283597855864856576,195,32,34'
p1
.S'1283594310897836032,196,23,25'
p1
.S'1283628453660405760,185,6,7'
p1
.S'1283625098535940096,131,0,1'
p1
.S'1283585512346648576,195,0,1'
p1
.S'1283639468657950720,194,0,1'
p1
.S'1283600283552944128,183,36,41'
p1
.S'1283566151577845760,196,30,31'
p1
.S'1283595760822312960,163,7,9'
p1
.S'1283617071015612416,194,41,43'
p1
.S'1283572805815939072,193,17,18'
p1
.S'1283588762785746944,196,50,53'
p1
.S'1283588797153570816,189,107,109'
p1
.S'1283648551305564160,192,21,55'
p1
.S'1283587271500922880,189,0,1'
p1
.S'1283659323490684928,195,83,86'
p1
.S'1283589023369170944,193,179,195'
p1
.S'1283599056660586496,193,73,77'
p1
.S'1283641034077044736,192,42,135'
p1
.S'1283597011132018688,184,132,133'
p1
.S'1283575274696830976,196,0,1'
p1
.S'1283588707924283392,194,153,171'
p1
.S'1283595706363502592,195,20,22'
p1
.S'1283646456934367232,195,31,32'
p1
.S'1283617305590640640,136,73,74'
p1
.S'1283614924949893120,195,93,127'
p1
.S'1283648693190946816,131,3,4'
p1
.S'1283589644449206272,189,0,1'
p1
.S'1283662059883659264,195,0,1'
p1
.S'1283663695893188608,137,0,1'
p1
.S'1283608232811773952,195,87,89'
p1
.S'1283682568533168128,195,9,10'
p1
.S'1283566491257974784,178,163,175'
p1
.S'1283675519099224064,194,29,30'
p1
.S'1283601789342113792,194,192,194'
p1
.S'1283589067740745728,196,124,140'
p1
.S'1283584725038579712,195,139,140'
p1
.S'1283585987649433600,196,189,398'
p1
.S'1283589495597719552,177,106,150'
p1
.S'1283613752163708928,188,68,69'
p1
.S'1283601107318456320,196,171,212'
p1
.S'1283679977397014528,196,32,33'
p1
.S'1283627964961316864,190,74,121'
p1
.S'1283556441533661184,196,19,20'
p1
.S'1283633231136194560,158,83,84'
p1
.S'1283585169315790848,196,184,187'
p1
.S'1283606724259069952,190,15,16'
p1
.S'1283668417232437248,196,39,57'
p1
.S'1283594196380692480,194,0,1'
p1
.S'1283576274333646848,190,115,120'
p1
.S'1283659789515759616,196,60,64'
p1
.S'1283606588711927808,195,21,23'
p1
.S'1283633856612311040,196,6,7'
p1
.S'1283590123308883968,194,42,49'
p1
.S'1283605147092140032,150,119,120'
p1
.S'1282470658689351680,180,17,18'
p1
.S'1282520295059636224,195,14,15'
p1
.S'1282468039862226944,195,77,81'
p1
.S'1282511620253339648,195,40,41'
p1
.S'1282433945711104000,180,180,670'
p1
.S'1282514487110963200,196,7,8'
p1
.S'1282489382939000832,191,5,6'
p1
.S'1282532160074919936,195,4,5'
p1
.S'1282580295840931840,186,14,15'
p1
.S'1282481156809789440,195,6,7'
p1
.S'1282480276169428992,196,146,147'
p1
.S'1282492645167554560,196,84,101'
p1
.S'1282455375584821248,195,39,40'
p1
.S'1282537870238072832,196,2,3'
p1
.S'1282525613420404736,161,3,4'
p1
.S'1282578753503043584,196,5,6'
p1
.S'1282540884499804160,195,52,53'
p1
.S'1282492479031640064,196,14,15'
p1
.S'1282414371473424384,168,68,69'
p1
.S'1282429222262398976,134,2,3'
p1
.S'1282600587120291840,194,41,43'
p1
.S'1282524234241191936,191,1,2'
p1
.S'1282581709057110016,159,7,8'
p1
.S'1282506246297427968,156,14,26'
p1
.S'1282496514019176448,196,96,139'
p1
.S'1282513131121819648,195,2,3'
p1
.S'1282556262646784000,194,87,127'
p1
.S'1282625588234424320,195,51,56'
p1
.S'1282543508020215808,195,3,4'
p1
.S'1282590423193378816,195,7,8'
p1
.S'1282580492557955072,195,99,102'
p1
.S'1282533393388974080,194,128,129'
p1
.S'1282519983209226240,196,4,5'
p1
.S'1282501919248125952,195,72,73'
p1
.S'1282578337650675712,172,0,1'
p1
.S'1282518638821580800,177,74,75'
p1
.S'1282535429006106624,194,0,1'
p1
.S'1282589785768226816,181,1,2'
p1
.S'1282575881436590080,156,28,29'
p1
.S'1283250234956369920,196,161,324'
p1
.S'1283269431900127232,150,9,10'
p1
.S'1283248053666684928,196,39,40'
p1
.S'1283238800830754816,195,98,101'
p1
.S'1283256620259971072,196,13,14'
p1
.S'1283254581425541120,195,37,38'
p1
.S'1283276426946686976,195,10,11'
p1
.S'1283259295739596800,195,59,60'
p1
.S'1283245490372284416,186,14,15'
p1
.S'1283216640423133184,191,111,117'
p1
.S'1283209578569404416,193,64,65'
p1
.S'1283281451001184256,195,43,44'
p1
.S'1283262392448778240,130,0,1'
p1
.S'1282506246297427968,156,14,26'
p1
.S'1282478311117049856,196,193,203'
p1
.S'1282543508020215808,195,3,4'
p1
.S'1282524490399907840,165,56,60'
p1
.S'1282448654414262272,190,0,1'
p1
.S'1282520525771874304,195,9,10'
p1
.S'1282515232698535936,194,31,34'
p1
.S'1282461310953070592,196,80,82'
p1
.S'1282532160074919936,195,4,5'
p1
.S'1282462921959583744,196,69,101'
p1
.S'1282452613237256192,196,3,4'
p1
.S'1282508294237339648,194,0,1'
p1
.S'1282525613420404736,161,3,4'
p1
.S'1282497176828301312,91,0,1'
p1
.S'1282513685323063296,194,104,105'
p1
.S'1282447043109265408,195,75,81'
p1
.S'1282532885878272000,196,8,9'
p1
.S'1282468042151981056,187,60,61'
p1
.S'1282537870238072832,196,2,3'
p1
.S'1282515198326038528,196,63,64'
p1
.S'1283970553920847872,195,112,116'
p1
.S'1284046168036696064,196,102,112'
p1
.S'1283936782584889344,195,101,102'
p1
.S'1283980826480652288,163,0,1'
p1
.S'1284002231209041920,195,3,4'
p1
.S'1283946352459792384,195,76,98'
p1
.S'1283962883998908416,195,32,36'
p1
.S'1283947159226081280,196,136,137'
p1
.S'1284018141601071104,195,35,42'
p1
.S'1284030153936326656,196,85,86'
p1
.S'1283960015643983872,195,9,11'
p1
.S'1283952226443898880,194,0,1'
p1
.S'1283959575833665536,180,0,1'
p1
.S'1283875946939977728,186,9,10'
p1
.S'1284020027955576832,196,64,66'
p1
.S'1283963034712850432,192,27,29'
p1
.S'1283965270641741824,181,105,106'
p1
.S'1283968817416245248,196,162,164'
p1
.S'1283969296812371968,157,0,1'
p1
.S'1283971419013042176,196,50,51'
p1
.S'1283953444352610304,192,122,125'
p1
.S'1283980357301579776,195,6,7'
p1
.S'1283890549233283072,196,60,62'
p1
.S'1283953096531345408,195,78,93'
p1
.S'1284016590538645504,194,35,36'
p1
.S'1283934734451929088,195,57,58'
p1
.S'1283908831394807808,195,87,98'
p1
.S'1284029359816630272,195,0,1'
p1
.S'1283882322441723904,174,85,92'
p1
.S'1283914210950651904,185,70,104'
p1
.S'1284048031930798080,196,0,1'
p1
.S'1283959976297385984,195,2,3'
p1
.S'1283973819841028096,196,52,58'
p1
.S'1283987022159265792,196,4,5'
p1
.S'1283984498648121344,194,69,92'
p1
.S'1283919177975463936,195,176,278'
p1
.S'1283976301866364928,179,102,104'
p1
.S'1283966261373923328,182,60,66'
p1
.S'1283954975508197376,195,145,162'
p1
.S'1282766861456805888,81,0,1'
p1
.S'1282798962998747136,175,0,1'
p1
.S'1282851578315440128,129,1,2'
p1
.S'1282831602615001088,196,33,49'
p1
.S'1282787717264097280,189,0,1'
p1
.S'1282838500676358144,196,25,31'
p1
.S'1282850673817985024,105,66,68'
p1
.S'1282827091704463360,157,84,86'
p1
.S'1282854326393839616,190,148,196'
p1
.S'1282803364719677440,195,4,5'
p1
.S'1282729456058118144,195,195,467'
p1
.S'1282846970385489920,191,71,72'
p1
.S'1282822778680242176,196,88,90'
p1
.S'1282825847866384384,189,5,7'
p1
.S'1282794895354540032,195,2,3'
p1
.S'1282822956472770560,195,142,164'
p1
.S'1282750304240156672,195,0,1'
p1
.S'1282755602795708416,192,0,1'
p1
.S'1282811104107933696,196,24,25'
p1
.S'1283193437436964864,128,1,2'
p1
.S'1283234334618386432,188,0,1'
p1
.S'1283191264875552768,194,40,41'
p1
.S'1283240263271559168,196,191,437'
p1
.S'1283237750791389184,195,74,82'
p1
.S'1283243042459545600,193,112,194'
p1
.S'1283220812979642368,194,22,23'
p1
.S'1283239277312020480,196,64,65'
p1
.S'1283208005181206528,195,2,3'
p1
.S'1283229344890007552,195,46,48'
p1
.S'1283232681165221888,14,5,6'
p1
.S'1283204162787872768,182,75,76'
p1
.S'1283229262111461376,198,0,1'
p1
.S'1283216025512509440,184,40,41'
p1
.S'1283233349703778304,195,100,102'
p1
.S'1283515749008564224,196,132,133'
p1
.S'1283495322685186048,181,60,69'
p1
.S'1283516337125519360,138,20,22'
p1
.S'1283519060898181120,195,59,60'
p1
.S'1283377692003528704,184,4,5'
p1
.S'1283450646464958464,195,1,2'
p1
.S'1283343817193971712,194,25,26'
p1
.S'1283463475653939200,196,7,8'
p1
.S'1283464930754011136,195,10,13'
p1
.S'1283450905274028032,195,42,43'
p1
.S'1283518368997339136,147,19,20'
p1
.S'1283473738876489728,195,37,38'
p1
.S'1283450856477442048,194,0,1'
p1
.S'1283472957372760064,184,121,158'
p1
.S'1283520552166150144,193,52,56'
p1
.S'1283479643701366784,194,194,195'
p1
.S'1283504447095992320,195,36,37'
p1
.S'1283454527751794688,195,3,5'
p1
.S'1283490095185711104,190,35,37'
p1
.S'1283508356509822976,190,32,35'
p1
.S'1283445116585082880,192,29,30'
p1
.S'1283517214393294848,204,145,146'
p1
.S'1283474701037494272,136,79,80'
p1
.S'1283438869576368128,162,2,3'
p1
.S'1283422662479306752,169,18,19'
p1
.S'1283481239281725440,195,77,78'
p1
.S'1283474104283983872,195,83,85'
p1
.S'1283519258906738688,91,0,1'
p1
.S'1283470845129719808,196,17,18'
p1
.S'1283353522343694336,123,115,122'
p1
.S'1283470431201980416,117,108,161'
p1
.S'1283506938671771648,182,20,22'
p1
.S'1283379113578913792,153,7,8'
p1
.S'1283453467738431488,195,0,1'
p1
.S'1283369237679050752,195,0,1'
p1
.S'1283506902894370816,141,0,1'
p1
.S'1283516426078310400,196,26,28'
p1
.S'1283445588478029824,195,140,143'
p1
.S'1283500909577572352,195,64,65'
p1
.S'1283493856364666880,148,0,1'
p1
.S'1283487907046453248,155,85,86'
p1
.S'1283460346673565696,193,0,1'
p1
.S'1283506442485547008,192,126,166'
p1
.S'1283376860625293312,189,10,11'
p1
.S'1283439280949170176,195,0,1'
p1
.S'1283441372418228224,186,168,224'
p1
.S'1283484673611644928,180,16,17'
p1
.S'1283501184208052224,195,38,43'
p1
.S'1283481657982267392,166,12,13'
p1
.S'1283488400103919616,191,56,61'
p1
.S'1283460495495532544,180,180,183'
p1
.S'1283469736432537600,195,0,1'
p1
.S'1283503352135221248,157,8,9'
p1
.S'1283511952223666176,196,186,189'
p1
.S'1283475874443837440,163,3,4'
p1
.S'1283425609024462848,153,0,1'
p1
.S'1283493206302015488,195,37,38'
p1
.S'1283490407782780928,195,36,37'
p1
.S'1283449194899705856,196,196,1242'
p1
.S'1283354506520145920,195,23,24'
p1
.S'1283493343988752384,194,101,302'
p1
.S'1283490720296443904,194,11,13'
p1
.S'1283343694032244736,196,113,115'
p1
.S'1283502200064446464,195,110,120'
p1
.S'1283434481290227712,195,86,108'
p1
.S'1283475053967007744,195,121,148'
p1
.S'1283518396880842752,195,11,12'
p1
.S'1283486348967624704,195,135,173'
p1
.S'1283497660699570176,195,164,168'
p1
.S'1283493663246635008,194,0,1'
p1
.S'1283500914200186880,195,64,65'
p1
.S'1283454973191577600,188,31,33'
p1
.S'1283516869684473856,170,169,305'
p1
.S'1283452737434308608,175,31,32'
p1
.S'1283505369762906112,196,85,96'
p1
.S'1283466874726309888,182,75,76'
p1
.S'1283461299787182080,195,0,1'
p1
.S'1283509062658936832,195,177,191'
p1
.S'1283438658619867136,191,46,55'
p1
.S'1283457075602944000,195,1,2'
p1
.S'1283492302912155648,196,35,46'
p1
.S'1283503520791900160,195,49,66'
p1
.S'1283477135650361344,195,16,19'
p1
.S'1283479159221665792,190,38,39'
p1
.S'1283522883687231488,195,54,55'
p1
.S'1283446364919476224,194,43,44'
p1
.S'1283468670370254848,191,4,5'
p1
.S'1283483136068091904,188,60,61'
p1
.S'1283467265190617088,196,6,7'
p1
.S'1283457782544318464,189,2,3'
p1
.S'1283466031000076288,195,1,2'
p1
.S'1283521598498156544,188,52,55'
p1
.S'1283443504949420032,91,53,54'
p1
.