S'1290404174164836352,189,4,5'
p1
.S'1290457668368080896,195,9,10'
p1
.S'1290474319033581568,194,22,23'
p1
.S'1290442361100546048,195,0,1'
p1
.S'1290434946409848832,194,11,12'
p1
.S'1290480992385232896,196,125,126'
p1
.S'1290475008904585216,171,92,101'
p1
.S'1290332010556035072,194,6,7'
p1
.S'1290453677928243200,61,13,14'
p1
.S'1290446486941106176,195,32,37'
p1
.S'1290452828749492224,180,85,87'
p1
.S'1290502174417240064,193,32,34'
p1
.S'1290394221630693376,195,0,1'
p1
.S'1290469096701472768,195,4,5'
p1
.S'1290433079026106368,147,1,2'
p1
.S'1290485317496872960,195,95,106'
p1
.S'1290498650975657984,180,14,15'
p1
.S'1290421158969339904,195,4,5'
p1
.S'1290412685858877440,195,36,37'
p1
.S'1290478031655604224,188,129,168'
p1
.S'1290461389890392064,190,94,128'
p1
.S'1290467872954839040,140,13,14'
p1
.S'1290478793156661248,169,0,1'
p1
.S'1290456447595237376,183,118,151'
p1
.S'1290457435454492672,196,2,3'
p1
.S'1290471265316081664,196,145,147'
p1
.S'1290441272481685504,195,109,134'
p1
.S'1290461424912855040,195,44,49'
p1
.S'1290498136691097600,196,0,1'
p1
.S'1290480829075742720,173,23,24'
p1
.S'1290490807652089856,178,0,1'
p1
.S'1290420826839080960,183,4,5'
p1
.S'1290500145490108416,196,196,197'
p1
.S'1290451861224169472,151,18,19'
p1
.S'1290470513843568640,196,139,140'
p1
.S'1290500199902760960,160,19,21'
p1
.S'1290491836397682688,196,16,17'
p1
.S'1290467759838404608,195,35,38'
p1
.S'1290478050835836928,195,172,188'
p1
.S'1290458126713229312,188,90,97'
p1
.S'1290468623336488960,195,38,39'
p1
.S'1290438803617734656,182,0,1'
p1
.S'1290439184091443200,178,86,89'
p1
.S'1290497655453405184,194,194,555'
p1
.S'1290434363351293952,190,106,107'
p1
.S'1290375710468624384,196,176,177'
p1
.S'1290395265060204544,181,16,17'
p1
.S'1290503863622934528,195,52,55'
p1
.S'1290478303186407424,196,3,4'
p1
.S'1290378706921148416,191,3,5'
p1
.S'1290386088963227648,195,26,38'
p1
.S'1290388239739461632,195,3,4'
p1
.S'1290498997949235200,195,85,105'
p1
.S'1290489572555456512,195,33,34'
p1
.S'1290440345926201344,194,25,26'
p1
.S'1290409234395262976,196,49,53'
p1
.S'1290378989785260032,195,0,1'
p1
.S'1290393236757741569,194,0,1'
p1
.S'1290486726971858944,126,39,40'
p1
.S'1290419759351005184,195,0,1'
p1
.S'1290351193176047616,174,106,107'
p1
.S'1290435672271888384,195,119,142'
p1
.S'1290435321980661760,196,106,107'
p1
.S'1290458984364580864,195,1,2'
p1
.S'1290445883183349760,154,1,2'
p1
.S'1290439861052063744,195,0,1'
p1
.S'1290432314496688128,150,59,63'
p1
.S'1290464704829259776,157,36,38'
p1
.S'1290423551052161024,195,187,358'
p1
.S'1290463251091841024,187,10,11'
p1
.S'1290476961382256640,195,5,6'
p1
.S'1290499668299902976,195,195,203'
p1
.S'1290459790023499776,195,2,3'
p1
.S'1290415764893036544,193,7,8'
p1
.S'1290481259973320704,196,17,18'
p1
.S'1290448146501124096,195,21,22'
p1
.S'1290480014177005568,196,5,6'
p1
.S'1290472512177823744,195,14,16'
p1
.S'1290395829903183872,169,1,2'
p1
.S'1290426232198025216,196,6,7'
p1
.S'1290485090790854656,195,2,3'
p1
.S'1290450941069664256,195,19,21'
p1
.S'1290481684726411264,195,72,73'
p1
.S'1290449685991055360,190,163,168'
p1
.S'1290486269410975744,196,0,1'
p1
.S'1290497927923560448,49,0,1'
p1
.S'1290445545059631104,189,40,48'
p1
.S'1290424346946469888,154,154,179'
p1
.S'1290480149539729408,196,58,60'
p1
.S'1290383228460474368,190,7,8'
p1
.S'1290448389095690240,195,63,110'
p1
.S'1290472900440244224,196,3,4'
p1
.S'1290495731727237120,195,5,6'
p1
.S'1290411095420719104,188,3,4'
p1
.